(dp0
S'inning'
p1
I991
sS'limited'
p2
I2244
sS'four'
p3
I131
sS'protest'
p4
I1786
sS'woods'
p5
I1371
sS'asian'
p6
I1039
sS'controversial'
p7
I1316
sS'captain'
p8
I995
sS'increase'
p9
I602
sS'votes'
p10
I2256
sS'pedro'
p11
I2111
sS'founder'
p12
I2345
sS'aug'
p13
I1022
sS'paris'
p14
I692
sS'verdana'
p15
I1245
sS'opener'
p16
I1803
sS'voted'
p17
I1781
sS'under'
p18
I211
sS'worth'
p19
I946
sS'placed'
p20
I2015
sS'risk'
p21
I1049
sS'rise'
p22
I634
sS'dell'
p23
I1139
sS'every'
p24
I888
sS'bringing'
p25
I1760
sS'believed'
p26
I1905
sS'school'
p27
I530
sS'prize'
p28
I1234
sS'cause'
p29
I1647
sS'companies'
p30
I209
sS'wednesday'
p31
I53
sS'roddick'
p32
I2451
sS'announced'
p33
I127
sS'heading'
p34
I2156
sS'jeff'
p35
I1758
sS'force'
p36
I626
sS'leaders'
p37
I473
sS'phones'
p38
I780
sS'estimates'
p39
I1754
sS'japanese'
p40
I503
sS'budget'
p41
I1683
sS'second'
p42
I102
sS'street'
p43
I356
sS'n'
p44
I107
sS'machines'
p45
I1374
sS'even'
p46
I294
sS'asia'
p47
I1002
sS'spokesman'
p48
I976
sS'above'
p49
I987
sS'toll'
p50
I1746
sS'supplies'
p51
I1183
sS'net'
p52
I553
sS'increasing'
p53
I2081
sS'ever'
p54
I625
sS'disney'
p55
I1363
sS'told'
p56
I512
sS'whose'
p57
I1074
sS'men'
p58
I437
sS'here'
p59
I417
sS'hundreds'
p60
I912
sS'reported'
p61
I172
sS'protection'
p62
I1300
sS'china'
p63
I190
sS'100'
p64
I668
sS'enron'
p65
I1957
sS'property'
p66
I1966
sS'auction'
p67
I1640
sS'study'
p68
I723
sS'changed'
p69
I1873
sS'reports'
p70
I393
sS'itunes'
p71
I1632
sS'credit'
p72
I1161
sS'analysts'
p73
I738
sS'military'
p74
I270
sS'changes'
p75
I1384
sS'criticism'
p76
I2445
sS'secure'
p77
I1408
sS'campaign'
p78
I519
sS'touchdowns'
p79
I1364
sS'replace'
p80
I1655
sS'brought'
p81
I1213
sS'total'
p82
I1223
sS'unit'
p83
I812
sS'would'
p84
I90
sS'army'
p85
I546
sS'hospital'
p86
I993
sS'played'
p87
I1082
sS'arms'
p88
I1835
sS'1,000'
p89
I2125
sS'music'
p90
I251
sS'strike'
p91
I777
sS'indiana'
p92
I1992
sS'until'
p93
I775
sS'supporters'
p94
I2023
sS'holy'
p95
I2169
sS'quickinfo'
p96
I275
sS'yahoo'
p97
I861
sS'award'
p98
I1788
sS'hurt'
p99
I1639
sS'phone'
p100
I314
sS'berlin'
p101
I2091
sS'championships'
p102
I1980
sS'90'
p103
I2123
sS'hole'
p104
I2020
sS'hold'
p105
I837
sS'tampa'
p106
I1933
sS'must'
p107
I836
sS'me'
p108
I2028
sS'join'
p109
I1482
sS'room'
p110
I1474
sS'rights'
p111
I863
sS'work'
p112
I405
sS'movies'
p113
I1921
sS'mw'
p114
I1117
sS'era'
p115
I2132
sS'ms'
p116
I1142
sS'mr'
p117
I2263
sS'my'
p118
I1235
sS'give'
p119
I550
sS'india'
p120
I282
sS'currency'
p121
I1731
sS'want'
p122
I979
sS'seoul'
p123
I2082
sS'keep'
p124
I587
sS'qcat'
p125
I2093
sS'end'
p126
I160
sS'recovery'
p127
I1560
sS'quot'
p128
I42
sS'provide'
p129
I891
sS'travel'
p130
I1212
sS'damage'
p131
I1516
sS'kabul'
p132
I1295
sS'how'
p133
I335
sS'hot'
p134
I1650
sS'rookie'
p135
I1816
sS'interview'
p136
I1768
sS'beach'
p137
I2266
sS'regional'
p138
I1809
sS'after'
p139
I34
sS'confirmed'
p140
I949
sS'wrong'
p141
I2013
sS'president'
p142
I79
sS'law'
p143
I770
sS'purchase'
p144
I1681
sS'attempt'
p145
I916
sS'third'
p146
I112
sS'sets'
p147
I2361
sS'amid'
p148
I672
sS'greek'
p149
I1954
sS'green'
p150
I841
sS'enter'
p151
I2454
sS'democratic'
p152
I895
sS'order'
p153
I958
sS'operations'
p154
I839
sS'decide'
p155
I2021
sS'office'
p156
I543
sS'telecom'
p157
I2204
sS'over'
p158
I41
sS'expects'
p159
I1279
sS'london'
p160
I210
sS'japan'
p161
I295
sS'before'
p162
I161
sS'scoring'
p163
I1942
sS'fullquote'
p164
I118
sS'personal'
p165
I756
sS'rebounds'
p166
I2188
sS','
p167
I4
sS'denver'
p168
I1818
sS'crew'
p169
I1830
sS'better'
p170
I593
sS'production'
p171
I719
sS'400'
p172
I1566
sS'wales'
p173
I1987
sS'weeks'
p174
I350
sS'then'
p175
I790
sS'them'
p176
I212
sS'similar'
p177
I2108
sS'finish'
p178
I1913
sS'break'
p179
I1273
sS'they'
p180
I64
sS'schools'
p181
I2387
sS'bank'
p182
I224
sS'alex'
p183
I1774
sS'debut'
p184
I1583
sS'arrested'
p185
I879
sS'l'
p186
I1528
sS'detroit'
p187
I925
sS'victory'
p188
I156
sS'each'
p189
I762
sS'went'
p190
I832
sS'side'
p191
I821
sS'carlos'
p192
I1919
sS'lifted'
p193
I2372
sS'financial'
p194
I365
sS'series'
p195
I222
sS'train'
p196
I2225
sS'crimes'
p197
I2262
sS'solution'
p198
I2330
sS'carry'
p199
I2236
sS'milan'
p200
I2222
sS'indianapolis'
p201
I1783
sS'trading'
p202
I613
sS'saturday'
p203
I106
sS'network'
p204
I197
sS'driving'
p205
I2349
sS'passengers'
p206
I2455
sS'crucial'
p207
I1848
sS'tomorrow'
p208
I1580
sS'content'
p209
I1317
sS're'
p210
I823
sS'got'
p211
I658
sS'newly'
p212
I2000
sS'size'
p213
I773
sS'foundation'
p214
I2446
sS'arizona'
p215
I1579
sS'turning'
p216
I1932
sS'resume'
p217
I2164
sS'threatened'
p218
I1108
sS'little'
p219
I515
sS'free'
p220
I371
sS'standard'
p221
I1180
sS'wanted'
p222
I1188
sS'created'
p223
I1738
sS'refugee'
p224
I2334
sS'kashmir'
p225
I1622
sS'days'
p226
I281
sS'isn'
p227
I2435
sS'moving'
p228
I1467
sS'onto'
p229
I2373
sS'stewart'
p230
I1611
sS'already'
p231
I685
sS'features'
p232
I1305
sS'nhl'
p233
I1685
sS'hearing'
p234
I2172
sS'another'
p235
I225
sS'electronic'
p236
I1191
sS'basketball'
p237
I899
sS'service'
p238
I169
sS'top'
p239
I145
sS'needed'
p240
I1303
sS'newsfactor'
p241
I1988
sS'rates'
p242
I715
sS'too'
p243
I684
sS'tom'
p244
I1425
sS'hollywood'
p245
I1391
sS'john'
p246
I242
sS'murder'
p247
I1939
sS'tool'
p248
I1714
sS'took'
p249
I374
sS'rejected'
p250
I1181
sS'direct'
p251
I1762
sS'western'
p252
I716
sS'toronto'
p253
I643
sS'target'
p254
I198
sS'showed'
p255
I591
sS'likely'
p256
I650
sS'nations'
p257
I357
sS'project'
p258
I1112
sS'matter'
p259
I1752
sS'merck'
p260
I1968
sS'greenspan'
p261
I2453
sS'acquisition'
p262
I1206
sS'ran'
p263
I1359
sS'boston'
p264
I328
sS'seed'
p265
I2141
sS'seen'
p266
I953
sS'seek'
p267
I2072
sS'ray'
p268
I2106
sS'forced'
p269
I1137
sS'strength'
p270
I1853
sS'laden'
p271
I2393
sS'forces'
p272
I391
sS'quarterback'
p273
I761
sS'blue'
p274
I880
sS'though'
p275
I981
sS'regular'
p276
I1890
sS'germany'
p277
I688
sS'explosives'
p278
I2458
sS'zealand'
p279
I1214
sS'don'
p280
I1438
sS'richard'
p281
I1595
sS'antitrust'
p282
I1886
sS'medical'
p283
I1019
sS'camp'
p284
I1167
sS'm'
p285
I677
sS'points'
p286
I322
sS'tech'
p287
I789
sS'enterprise'
p288
I1017
sS'voting'
p289
I1594
sS'consumer'
p290
I490
sS'dow'
p291
I1132
sS'came'
p292
I653
sS'reserve'
p293
I639
sS'saying'
p294
I499
sS'bomb'
p295
I565
sS'probe'
p296
I1537
sS'ending'
p297
I1014
sS'prix'
p298
I1268
sS'qaeda'
p299
I1448
sS'radio'
p300
I742
sS'earth'
p301
I1012
sS'orleans'
p302
I2450
sS'finally'
p303
I844
sS'just'
p304
I170
sS'minnesota'
p305
I1072
sS'bush'
p306
I188
sS'rich'
p307
I1527
sS'networking'
p308
I2396
sS'announce'
p309
I1472
sS'oct'
p310
I589
sS'do'
p311
I325
sS'exports'
p312
I1926
sS'wide'
p313
I1189
sS'de'
p314
I1209
sS'stop'
p315
I808
sS'television'
p316
I610
sS'cardinals'
p317
I1377
sS'coast'
p318
I831
sS'amazon'
p319
I2374
sS'new'
p320
I27
sS'report'
p321
I230
sS'haiti'
p322
I2080
sS'saturn'
p323
I2388
sS'hall'
p324
I2217
sS'runs'
p325
I1010
sS'countries'
p326
I703
sS'officially'
p327
I2159
sS'bay'
p328
I804
sS'twice'
p329
I1593
sS'bad'
p330
I1249
sS'rival'
p331
I438
sS'insurgents'
p332
I1134
sS'secretary'
p333
I557
sS'headed'
p334
I1828
sS'disaster'
p335
I2250
sS'testing'
p336
I1732
sS'decided'
p337
I941
sS'result'
p338
I1228
sS'resigned'
p339
I1956
sS'best'
p340
I442
sS'brazil'
p341
I1389
sS'said'
p342
I22
sS'capacity'
p343
I2199
sS'away'
p344
I529
sS'patients'
p345
I2287
sS'future'
p346
I558
sS'olympics'
p347
I826
sS'approach'
p348
I2131
sS'we'
p349
I509
sS'never'
p350
I877
sS'terms'
p351
I1504
sS'nationwide'
p352
I1973
sS'adding'
p353
I1730
sS'wo'
p354
I2427
sS'ask'
p355
I2049
sS'weak'
p356
I1820
sS'however'
p357
I2405
sS'wi'
p358
I2381
sS'boss'
p359
I1543
sS'retirement'
p360
I1889
sS'drew'
p361
I2401
sS'recent'
p362
I463
sS'news'
p363
I142
sS'666666'
p364
I1244
sS'debt'
p365
I1125
sS'improve'
p366
I1484
sS'faced'
p367
I2142
sS'received'
p368
I992
sS'protect'
p369
I1489
sS'expos'
p370
I2137
sS'met'
p371
I1176
sS'country'
p372
I158
sS'wounding'
p373
I1485
sS'heating'
p374
I1674
sS'against'
p375
I70
sS'players'
p376
I302
sS'games'
p377
I241
sS'planned'
p378
I897
sS'faces'
p379
I1666
sS'com'
p380
I104
sS'asked'
p381
I928
sS'pre'
p382
I1854
sS'tough'
p383
I1602
sS'appeared'
p384
I1313
sS'royal'
p385
I1637
sS'civilians'
p386
I2426
sS'viruses'
p387
I2444
sS'tony'
p388
I846
sS'telecommunications'
p389
I1600
sS'conference'
p390
I466
sS'iraq'
p391
I103
sS'rangers'
p392
I1881
sS'union'
p393
I283
sS'claiming'
p394
I2076
sS'three'
p395
I78
sS'been'
p396
I80
sS'quickly'
p397
I1800
sS'commission'
p398
I415
sS'much'
p399
I318
sS'interest'
p400
I547
sS'expected'
p401
I187
sS'entered'
p402
I1860
sS'dozens'
p403
I1883
sS'threw'
p404
I1257
sS'website'
p405
I2230
sS'life'
p406
I498
sS'eastern'
p407
I1201
sS'drugs'
p408
I1097
sS'darfur'
p409
I687
sS'lift'
p410
I1798
sS'child'
p411
I2389
sS'commerce'
p412
I1688
sS'east'
p413
I632
sS'air'
p414
I363
sS'near'
p415
I386
sS'appeals'
p416
I2255
sS'aid'
p417
I938
sS'voice'
p418
I1837
sS'employees'
p419
I930
sS'launched'
p420
I531
sS'unlikely'
p421
I2481
sS'seven'
p422
I358
sS'climbed'
p423
I2424
sS'mexico'
p424
I1353
sS'is'
p425
I21
sS'it'
p426
I23
sS'defeated'
p427
I2122
sS'player'
p428
I435
sS'experts'
p429
I1032
sS'in'
p430
I8
sS'victims'
p431
I1831
sS'seattle'
p432
I805
sS'if'
p433
I152
sS'hong'
p434
I1345
sS'patent'
p435
I2061
sS'things'
p436
I1396
sS'make'
p437
I228
sS'format'
p438
I1916
sS'potentially'
p439
I2498
sS'marathon'
p440
I2223
sS'several'
p441
I445
sS'showing'
p442
I1367
sS'european'
p443
I162
sS'independent'
p444
I1711
sS'satellite'
p445
I1101
sS'saddam'
p446
I1725
sS'pick'
p447
I2174
sS'rain'
p448
I1581
sS'hand'
p449
I1114
sS'insisted'
p450
I2317
sS'opportunity'
p451
I2027
sS'kept'
p452
I1215
sS'programs'
p453
I1356
sS'failing'
p454
I2344
sS'practices'
p455
I2479
sS'claims'
p456
I867
sS'the'
p457
I3
sS'corporate'
p458
I735
sS'33'
p459
I2231
sS'left'
p460
I250
sS'protocol'
p461
I2269
sS'proposed'
p462
I1086
sS'yen'
p463
I1429
sS'photo'
p464
I2054
sS'fighters'
p465
I2488
sS'thanks'
p466
I1613
sS'human'
p467
I744
sS'yet'
p468
I690
sS'previous'
p469
I1292
sS'jose'
p470
I1159
sS'hills'
p471
I1936
sS'candidate'
p472
I1298
sS'ease'
p473
I2473
sS'had'
p474
I82
sS'board'
p475
I548
sS'easy'
p476
I1589
sS'prison'
p477
I1069
sS'save'
p478
I1307
sS'hat'
p479
I2014
sS'gave'
p480
I722
sS'fallujah'
p481
I1270
sS'possible'
p482
I669
sS'arab'
p483
I1483
sS'possibly'
p484
I2338
sS'injuring'
p485
I2395
sS'newcastle'
p486
I2278
sS'judge'
p487
I670
sS'hamas'
p488
I1971
sS'korean'
p489
I1410
sS'advanced'
p490
I1028
sS'county'
p491
I2026
sS'bobby'
p492
I2430
sS'55'
p493
I1878
sS'54'
p494
I2456
sS'orlando'
p495
I2414
sS'50'
p496
I603
sS'securities'
p497
I875
sS'officer'
p498
I917
sS'night'
p499
I109
sS'security'
p500
I117
sS'towards'
p501
I2489
sS'www'
p502
I215
sS'right'
p503
I390
sS'old'
p504
I238
sS'deal'
p505
I220
sS'people'
p506
I96
sS'dead'
p507
I797
sS'donald'
p508
I1997
sS'election'
p509
I253
sS'for'
p510
I11
sS'bottom'
p511
I2460
sS'comments'
p512
I2175
sS'everything'
p513
I2354
sS'musharraf'
p514
I2071
sS'denied'
p515
I1757
sS'cnn'
p516
I2115
sS'beating'
p517
I1150
sS'christmas'
p518
I1473
sS'core'
p519
I1767
sS'annan'
p520
I2305
sS'marketing'
p521
I1422
sS'popular'
p522
I755
sS'restructuring'
p523
I2365
sS'plc'
p524
I1362
sS'defensive'
p525
I1620
sS'losing'
p526
I1095
sS'post'
p527
I660
sS'manufacturing'
p528
I1515
sS'super'
p529
I1862
sS'microsystems'
p530
I1493
sS'trophy'
p531
I1556
sS'attacks'
p532
I483
sS'dollars'
p533
I913
sS'months'
p534
I276
sS'beta'
p535
I2311
sS'o'
p536
I271
sS'magazine'
p537
I1796
sS'plus'
p538
I1588
sS'afternoon'
p539
I1236
sS'efforts'
p540
I724
sS'palestinians'
p541
I1174
sS'slightly'
p542
I1253
sS'jacques'
p543
I2170
sS'raised'
p544
I817
sS'managers'
p545
I1808
sS'rallied'
p546
I2070
sS'civil'
p547
I1451
sS'prisoners'
p548
I2191
sS'attorney'
p549
I1258
sS'son'
p550
I2127
sS'down'
p551
I178
sS'sox'
p552
I398
sS'wal'
p553
I1404
sS'crowd'
p554
I1795
sS'support'
p555
I465
sS'initial'
p556
I1135
sS'legislation'
p557
I2306
sS'fight'
p558
I806
sS'virgin'
p559
I2190
sS'way'
p560
I258
sS'call'
p561
I858
sS'was'
p562
I32
sS'war'
p563
I288
sS'launching'
p564
I2134
sS'head'
p565
I346
sS'form'
p566
I1315
sS'offer'
p567
I456
sS'becoming'
p568
I1601
sS'ford'
p569
I1534
sS'wireless'
p570
I306
sS'failure'
p571
I2437
sS'heat'
p572
I1965
sS'lows'
p573
I2413
sS'solar'
p574
I2459
sS'stand'
p575
I1524
sS'analyst'
p576
I2039
sS'braves'
p577
I2300
sS'inside'
p578
I1570
sS'devices'
p579
I782
sS'<unk>'
p580
I1
sS'151'
p581
I711
sS'passenger'
p582
I2282
sS'classic'
p583
I1310
sS'stronger'
p584
I2065
sS'tournament'
p585
I950
sS'evidence'
p586
I1130
sS"''"
p587
I73
sS'promised'
p588
I1918
sS'request'
p589
I2130
sS'accounting'
p590
I1076
sS'ship'
p591
I2285
sS'check'
p592
I1625
sS'negotiations'
p593
I1276
sS'palestinian'
p594
I305
sS'nl'
p595
I2051
sS'no'
p596
I99
sS'stake'
p597
I977
sS'when'
p598
I87
sS'handed'
p599
I1677
sS'tim'
p600
I1431
sS'setting'
p601
I1547
sS'winning'
p602
I538
sS'holding'
p603
I965
sS'digital'
p604
I481
sS'test'
p605
I333
sS'tie'
p606
I1893
sS'developers'
p607
I2443
sS'scored'
p608
I485
sS'picture'
p609
I2055
sS'cleric'
p610
I1275
sS"'s"
p611
I25
sS'surprise'
p612
I1576
sS'football'
p613
I359
sS'update'
p614
I1283
sS'fell'
p615
I379
sS'scores'
p616
I2319
sS'authorities'
p617
I728
sS'weekend'
p618
I555
sS'died'
p619
I673
sS'jones'
p620
I771
sS'longer'
p621
I1329
sS'ryder'
p622
I1185
sS'together'
p623
I1340
sS'time'
p624
I89
sS'push'
p625
I1152
sS'serious'
p626
I1449
sS'profits'
p627
I795
sS'songs'
p628
I2227
sS'coach'
p629
I243
sS'cincinnati'
p630
I1948
sS'chain'
p631
I1230
sS'global'
p632
I344
sS'focus'
p633
I1063
sS'manager'
p634
I491
sS'ice'
p635
I2436
sS'battle'
p636
I667
sS'row'
p637
I1513
sS'suicide'
p638
I1008
sS'zone'
p639
I1660
sS'flash'
p640
I2284
sS'iraqi'
p641
I263
sS'charge'
p642
I1035
sS'terror'
p643
I1198
sS'suffered'
p644
I1544
sS'aspx'
p645
I274
sS'division'
p646
I679
sS'advantage'
p647
I2094
sS'choice'
p648
I2368
sS'word'
p649
I1996
sS'trouble'
p650
I2274
sS'blast'
p651
I1832
sS'minute'
p652
I1455
sS'governments'
p653
I2275
sS'hour'
p654
I1457
sS'bigley'
p655
I2379
sS'level'
p656
I854
sS'did'
p657
I469
sS'philippines'
p658
I2279
sS'standards'
p659
I1912
sS'leave'
p660
I1118
sS'p'
p661
I287
sS'settle'
p662
I1278
sS'team'
p663
I121
sS'speculation'
p664
I1871
sS'round'
p665
I312
sS'prevent'
p666
I2196
sS'olympic'
p667
I317
sS'says'
p668
I147
sS'sign'
p669
I962
sS'colin'
p670
I1464
sS'cost'
p671
I606
sS'targets'
p672
I2209
sS'afghanistan'
p673
I699
sS'ivory'
p674
I1974
sS'appear'
p675
I2298
sS'shares'
p676
I252
sS'current'
p677
I914
sS'goes'
p678
I2283
sS'international'
p679
I133
sS'falling'
p680
I1545
sS'appeal'
p681
I1535
sS'boost'
p682
I909
sS'explosion'
p683
I1284
sS'muslim'
p684
I923
sS'french'
p685
I464
sS'agreement'
p686
I460
sS'water'
p687
I1050
sS'upgrade'
p688
I2083
sS'baseball'
p689
I630
sS'redskins'
p690
I2370
sS'groups'
p691
I1026
sS'address'
p692
I2375
sS'along'
p693
I1096
sS'stem'
p694
I2299
sS'appears'
p695
I1575
sS'change'
p696
I751
sS'wait'
p697
I2403
sS'sending'
p698
I1218
sS'canadian'
p699
I537
sS'shift'
p700
I2472
sS'guilty'
p701
I1558
sS'trial'
p702
I675
sS'corp'
p703
I85
sS'bob'
p704
I2442
sS'montreal'
p705
I1617
sS'jhtml'
p706
I2069
sS'br'
p707
I2024
sS'extra'
p708
I2017
sS'peer'
p709
I1679
sS'patriots'
p710
I1540
sS'touchdown'
p711
I997
sS'crisis'
p712
I1000
sS'market'
p713
I141
sS'troops'
p714
I401
sS'working'
p715
I853
sS'lose'
p716
I2066
sS'ariel'
p717
I1192
sS'positive'
p718
I1628
sS'visit'
p719
I896
sS'athens'
p720
I330
sS'sports'
p721
I249
sS'msn'
p722
I1663
sS'live'
p723
I1569
sS'andy'
p724
I1722
sS'memory'
p725
I1277
sS'australian'
p726
I462
sS'angels'
p727
I1985
sS'today'
p728
I95
sS'``'
p729
I60
sS'sharing'
p730
I1423
sS'kerry'
p731
I620
sS'club'
p732
I584
sS'effort'
p733
I835
sS'ibm'
p734
I345
sS'tokyo'
p735
I412
sS'car'
p736
I416
sS'flu'
p737
I1863
sS'believes'
p738
I1904
sS'can'
p739
I138
sS'growing'
p740
I680
sS'making'
p741
I470
sS'dispute'
p742
I1352
sS'social'
p743
I2364
sS'streak'
p744
I1385
sS'claim'
p745
I1211
sS'figure'
p746
I2465
sS'december'
p747
I934
sS'chip'
p748
I638
sS'agent'
p749
I1636
sS'heard'
p750
I2447
sS'<pad>'
p751
I0
sS'dropped'
p752
I1169
sS'unveiled'
p753
I945
sS'allowed'
p754
I1607
sS'offense'
p755
I1849
sS'winter'
p756
I967
sS'means'
p757
I2198
sS'1'
p758
I77
sS'sunday'
p759
I88
sS'fourth'
p760
I342
sS'economy'
p761
I399
sS'criminal'
p762
I1662
sS'product'
p763
I721
sS'explorer'
p764
I1822
sS'huge'
p765
I1168
sS'may'
p766
I137
sS'aol'
p767
I2307
sS'southern'
p768
I508
sS'islamic'
p769
I947
sS'mac'
p770
I1519
sS'designed'
p771
I814
sS'date'
p772
I1989
sS'such'
p773
I461
sS'revealed'
p774
I1331
sS'eighth'
p775
I1791
sS'man'
p776
I364
sS'natural'
p777
I1909
sS'johnson'
p778
I1126
sS'sept'
p779
I708
sS'futures'
p780
I1248
sS'st'
p781
I510
sS'so'
p782
I260
sS'african'
p783
I772
sS'pulled'
p784
I1372
sS'talk'
p785
I1487
sS'years'
p786
I97
sS'course'
p787
I1154
sS'cuts'
p788
I1107
sS'cold'
p789
I2297
sS'still'
p790
I291
sS'machine'
p791
I2312
sS'group'
p792
I101
sS'jim'
p793
I2493
sS'platform'
p794
I1557
sS'offers'
p795
I1631
sS'policy'
p796
I920
sS'mail'
p797
I636
sS'main'
p798
I754
sS'decades'
p799
I1320
sS'texas'
p800
I651
sS'non'
p801
I1675
sS'finance'
p802
I1016
sS'matches'
p803
I2109
sS'nation'
p804
I336
sS'records'
p805
I1794
sS'taliban'
p806
I2247
sS'subscribers'
p807
I2440
sS'half'
p808
I298
sS'not'
p809
I69
sS'feature'
p810
I2220
sS'nov'
p811
I652
sS'now'
p812
I200
sS'killed'
p813
I182
sS'fla'
p814
I1629
sS'term'
p815
I696
sS'name'
p816
I904
sS'january'
p817
I1090
sS'frank'
p818
I2316
sS'drop'
p819
I903
sS'rock'
p820
I2104
sS'quarter'
p821
I120
sS'successful'
p822
I1785
sS'el'
p823
I2218
sS'square'
p824
I2471
sS'fired'
p825
I866
sS'begun'
p826
I1869
sS'year'
p827
I43
sS'eu'
p828
I918
sS'teams'
p829
I813
sS'tried'
p830
I1584
sS'canada'
p831
I691
sS'living'
p832
I1759
sS'opened'
p833
I983
sS'space'
p834
I240
sS'profit'
p835
I277
sS'oklahoma'
p836
I2113
sS'looking'
p837
I798
sS'investigation'
p838
I902
sS'emerged'
p839
I2192
sS'internet'
p840
I124
sS'formula'
p841
I1239
sS'shows'
p842
I1225
sS'earlier'
p843
I624
sS'cars'
p844
I1737
sS'million'
p845
I84
sS'seventh'
p846
I1665
sS'quite'
p847
I2318
sS'california'
p848
I541
sS'rebel'
p849
I840
sS'card'
p850
I1044
sS'care'
p851
I1160
sS'advance'
p852
I2168
sS'training'
p853
I1397
sS'ministry'
p854
I1217
sS'british'
p855
I216
sS'motion'
p856
I2077
sS'turn'
p857
I1011
sS'place'
p858
I533
sS'massive'
p859
I1417
sS'think'
p860
I1173
sS'first'
p861
I45
sS'tennis'
p862
I1375
sS'revenue'
p863
I709
sS'one'
p864
I55
sS'opec'
p865
I1897
sS'soaring'
p866
I2213
sS'americans'
p867
I811
sS'long'
p868
I213
sS'suspended'
p869
I1296
sS'spanish'
p870
I1264
sS'vote'
p871
I784
sS'xp'
p872
I1172
sS'drove'
p873
I2211
sS'open'
p874
I163
sS'george'
p875
I734
sS'millions'
p876
I1058
sS'airbus'
p877
I2052
sS'city'
p878
I154
sS'given'
p879
I1021
sS'district'
p880
I1741
sS'caught'
p881
I2295
sS'anyone'
p882
I2383
sS'2'
p883
I81
sS'draft'
p884
I1960
sS'convention'
p885
I1877
sS'white'
p886
I705
sS'williams'
p887
I718
sS'allegedly'
p888
I1903
sS'that'
p889
I14
sS'pittsburgh'
p890
I1365
sS'season'
p891
I113
sS'moscow'
p892
I838
sS'suit'
p893
I2265
sS'alan'
p894
I1706
sS'broadcast'
p895
I2292
sS'released'
p896
I321
sS'tehran'
p897
I1452
sS'uranium'
p898
I1480
sS'republic'
p899
I1542
sS'surged'
p900
I1895
sS'than'
p901
I63
sS'11'
p902
I341
sS'10'
p903
I155
sS'13'
p904
I549
sS'12'
p905
I397
sS'15'
p906
I448
sS'14'
p907
I511
sS'17'
p908
I489
sS'16'
p909
I562
sS'19'
p910
I649
sS'18'
p911
I507
sS'officials'
p912
I144
sS'venture'
p913
I1605
sS'were'
p914
I74
sS'cards'
p915
I2022
sS'russia'
p916
I459
sS'browser'
p917
I1131
sS'and'
p918
I9
sS'san'
p919
I214
sS'investors'
p920
I339
sS'remained'
p921
I1414
sS'craig'
p922
I1961
sS'pro'
p923
I1103
sS'premier'
p924
I1349
sS'turned'
p925
I952
sS'say'
p926
I261
sS'saw'
p927
I1289
sS'any'
p928
I387
sS'kevin'
p929
I1851
sS'offering'
p930
I665
sS'veteran'
p931
I2011
sS'equipment'
p932
I955
sS'potential'
p933
I1166
sS'take'
p934
I234
sS'online'
p935
I204
sS'performance'
p936
I698
sS'tigers'
p937
I2467
sS'channel'
p938
I2356
sS'200'
p939
I1337
sS'begin'
p940
I793
sS'sure'
p941
I1708
sS'track'
p942
I1141
sS'price'
p943
I439
sS'paid'
p944
I1522
sS'assault'
p945
I1596
sS'pair'
p946
I1949
sS'knee'
p947
I1623
sS'america'
p948
I400
sS'considered'
p949
I2340
sS'jakarta'
p950
I1724
sS'average'
p951
I989
sS'later'
p952
I966
sS'sale'
p953
I954
sS'ottawa'
p954
I2092
sS'ways'
p955
I1943
sS'professional'
p956
I2136
sS'senior'
p957
I608
sS'filing'
p958
I1618
sS'laws'
p959
I2221
sS'shot'
p960
I567
sS'show'
p961
I607
sS'german'
p962
I732
sS'filed'
p963
I800
sS'allegations'
p964
I1680
sS'spyware'
p965
I2038
sS'discovered'
p966
I1561
sS'russian'
p967
I383
sS'fifth'
p968
I984
sS'ground'
p969
I1040
sS'slow'
p970
I1392
sS'gulf'
p971
I1792
sS'title'
p972
I479
sS'daily'
p973
I1590
sS'3'
p974
I126
sS'42'
p975
I2501
sS'only'
p976
I262
sS'going'
p977
I647
sS'black'
p978
I1006
sS'hockey'
p979
I1339
sS'treasury'
p980
I1773
sS'carolina'
p981
I1321
sS'ranking'
p982
I2308
sS'get'
p983
I285
sS'hostage'
p984
I745
sS'<eos>'
p985
I2
sS'mission'
p986
I1111
sS'baghdad'
p987
I268
sS'nearly'
p988
I355
sS'auburn'
p989
I2315
sS'prime'
p990
I185
sS'morning'
p991
I556
sS'miles'
p992
I1490
sS'roger'
p993
I1412
sS'predicted'
p994
I2495
sS'bombs'
p995
I1887
sS'worries'
p996
I1499
sS'scott'
p997
I2304
sS'where'
p998
I340
sS'declared'
p999
I1750
sS'elected'
p1000
I2428
sS'college'
p1001
I894
sS'surgery'
p1002
I1615
sS'sport'
p1003
I1552
sS'concern'
p1004
I1318
sS'israeli'
p1005
I353
sS'mortgage'
p1006
I1424
sS'federal'
p1007
I180
sS'jumped'
p1008
I1676
sS'review'
p1009
I1678
sS'sites'
p1010
I1041
sS'forecast'
p1011
I871
sS'weapons'
p1012
I801
sS'outside'
p1013
I758
sS"'re"
p1014
I1777
sS'between'
p1015
I205
sS'bombing'
p1016
I1718
sS'across'
p1017
I544
sS'jobs'
p1018
I487
sS'august'
p1019
I678
sS'parent'
p1020
I2180
sS'screen'
p1021
I1705
sS'style'
p1022
I2232
sS'jr'
p1023
I2157
sS'killing'
p1024
I434
sS'jets'
p1025
I1465
sS'20'
p1026
I352
sS'cities'
p1027
I2119
sS'come'
p1028
I628
sS'many'
p1029
I290
sS'region'
p1030
I443
sS'according'
p1031
I184
sS'contract'
p1032
I455
sS's'
p1033
I13
sS'traded'
p1034
I2301
sS'comes'
p1035
I1151
sS'pakistan'
p1036
I518
sS'cancer'
p1037
I1847
sS'color'
p1038
I973
sS'period'
p1039
I1436
sS'expectations'
p1040
I922
sS'60'
p1041
I1458
sS'anti'
p1042
I662
sS'65'
p1043
I2341
sS'approval'
p1044
I1587
sS'ordered'
p1045
I1500
sS'poll'
p1046
I1855
sS'turkey'
p1047
I1610
sS'howard'
p1048
I1342
sS'west'
p1049
I334
sS'computing'
p1050
I1769
sS'airlines'
p1051
I720
sS'mark'
p1052
I612
sS'mart'
p1053
I1402
sS'mars'
p1054
I1702
sS'500'
p1055
I1332
sS'wants'
p1056
I1024
sS'shopping'
p1057
I1269
sS'offered'
p1058
I1140
sS'tiger'
p1059
I1333
sS'dramatic'
p1060
I2335
sS'wake'
p1061
I1865
sS'minister'
p1062
I125
sS'suspected'
p1063
I927
sS'champions'
p1064
I513
sS'those'
p1065
I619
sS'case'
p1066
I581
sS'developing'
p1067
I1521
sS'these'
p1068
I1113
sS'polls'
p1069
I2053
sS'cash'
p1070
I683
sS"n't"
p1071
I304
sS'pacers'
p1072
I2394
sS'associates'
p1073
I1870
sS'ongoing'
p1074
I2290
sS'newspaper'
p1075
I1158
sS'investigating'
p1076
I2034
sS'postseason'
p1077
I2423
sS'telephone'
p1078
I1511
sS'middle'
p1079
I1053
sS'sudanese'
p1080
I1806
sS'evening'
p1081
I2063
sS'technology'
p1082
I164
sS'different'
p1083
I1477
sS'develop'
p1084
I1324
sS'media'
p1085
I433
sS'bowl'
p1086
I885
sS'tour'
p1087
I783
sS'same'
p1088
I595
sS'trip'
p1089
I1717
sS'ceo'
p1090
I936
sS'speech'
p1091
I2105
sS'struggling'
p1092
I1437
sS'events'
p1093
I2264
sS'week'
p1094
I83
sS'oil'
p1095
I86
sS'edged'
p1096
I2120
sS'singapore'
p1097
I1023
sS'boosted'
p1098
I1856
sS'driver'
p1099
I1771
sS'director'
p1100
I1068
sS'running'
p1101
I506
sS'anticipated'
p1102
I1983
sS'vowed'
p1103
I2042
sS'charges'
p1104
I578
sS'iraqis'
p1105
I2186
sS'costs'
p1106
I569
sS'relief'
p1107
I1638
sS'very'
p1108
I1059
sS'model'
p1109
I1923
sS'researchers'
p1110
I850
sS'charged'
p1111
I915
sS'summer'
p1112
I1047
sS'among'
p1113
I599
sS'being'
p1114
I246
sS'money'
p1115
I617
sS'pitched'
p1116
I2494
sS'rest'
p1117
I1266
sS'violent'
p1118
I2281
sS'kill'
p1119
I2144
sS'speed'
p1120
I743
sS'captured'
p1121
I2205
sS'blow'
p1122
I1682
sS'announcement'
p1123
I1562
sS'death'
p1124
I605
sS'rose'
p1125
I286
sS'seems'
p1126
I1701
sS'desktop'
p1127
I816
sS'4'
p1128
I153
sS'role'
p1129
I1204
sS'struck'
p1130
I1282
sS'ca'
p1131
I1533
sS'scheduled'
p1132
I1224
sS'around'
p1133
I377
sS'rules'
p1134
I1238
sS'delhi'
p1135
I1357
sS'virginia'
p1136
I1178
sS'early'
p1137
I269
sS'inflation'
p1138
I1492
sS'traffic'
p1139
I1790
sS'amp'
p1140
I376
sS'ruled'
p1141
I1061
sS'intel'
p1142
I535
sS'server'
p1143
I748
sS'facing'
p1144
I1469
sS't'
p1145
I171
sS'retailers'
p1146
I1728
sS'64'
p1147
I1687
sS'cisco'
p1148
I1288
sS'madrid'
p1149
I860
sS'titan'
p1150
I2492
sS'competition'
p1151
I757
sS'images'
p1152
I2101
sS'provided'
p1153
I2408
sS'cp'
p1154
I843
sS'sudan'
p1155
I741
sS'legal'
p1156
I833
sS'moon'
p1157
I1243
sS'critical'
p1158
I1643
sS'deficit'
p1159
I1312
sS'provider'
p1160
I1149
sS'freed'
p1161
I2400
sS'considering'
p1162
I1721
sS'scientific'
p1163
I2333
sS'power'
p1164
I452
sS'airways'
p1165
I1018
sS'seconds'
p1166
I1442
sS'sixth'
p1167
I1684
sS'broken'
p1168
I2110
sS'leadership'
p1169
I2259
sS'thailand'
p1170
I1574
sS'frances'
p1171
I2448
sS'manufacturer'
p1172
I2245
sS'on'
p1173
I10
sS'central'
p1174
I534
sS'package'
p1175
I1756
sS'island'
p1176
I968
sS'industry'
p1177
I239
sS'violence'
p1178
I731
sS'thousands'
p1179
I654
sS'airline'
p1180
I786
sS'act'
p1181
I1664
sS'mixed'
p1182
I2202
sS'os'
p1183
I1814
sS'or'
p1184
I114
sS'road'
p1185
I1186
sS'outlook'
p1186
I1033
sS'image'
p1187
I1703
sS'signing'
p1188
I2417
sS'rising'
p1189
I921
sS'strip'
p1190
I951
sS'operator'
p1191
I1379
sS'watchdog'
p1192
I1782
sS'jerusalem'
p1193
I1360
sS'qtype'
p1194
I2095
sS'your'
p1195
I436
sS'her'
p1196
I233
sS'area'
p1197
I852
sS'qualifying'
p1198
I1691
sS'there'
p1199
I206
sS'alleged'
p1200
I1037
sS'los'
p1201
I505
sS'low'
p1202
I514
sS'lot'
p1203
I1726
sS'billion'
p1204
I139
sS'complete'
p1205
I1525
sS'enough'
p1206
I785
sS'pitcher'
p1207
I1550
sS'delayed'
p1208
I1742
sS'striker'
p1209
I1256
sS'hurricanes'
p1210
I1900
sS'technologies'
p1211
I960
sS'trying'
p1212
I714
sS'with'
p1213
I17
sS'buying'
p1214
I1322
sS'faster'
p1215
I1935
sS'pull'
p1216
I2155
sS'october'
p1217
I422
sS'agree'
p1218
I2325
sS'engine'
p1219
I759
sS'attacked'
p1220
I2276
sS'ad'
p1221
I1592
sS'ag'
p1222
I1928
sS'certain'
p1223
I1872
sS'moved'
p1224
I974
sS'sales'
p1225
I175
sS'deep'
p1226
I2004
sS'ban'
p1227
I1182
sS'cbs'
p1228
I889
sS'britain'
p1229
I551
sS'au'
p1230
I2477
sS'at'
p1231
I20
sS'file'
p1232
I857
sS'watched'
p1233
I2425
sS'moves'
p1234
I2251
sS'film'
p1235
I1478
sS'innings'
p1236
I1327
sS'beyond'
p1237
I2086
sS'receive'
p1238
I2484
sS'piracy'
p1239
I2337
sS'storage'
p1240
I1025
sS'insurance'
p1241
I807
sS'field'
p1242
I523
sS'2001'
p1243
I1585
sS'5'
p1244
I166
sS'you'
p1245
I157
sS'poor'
p1246
I1378
sS'championship'
p1247
I375
sS'congress'
p1248
I1129
sS'separate'
p1249
I2060
sS'students'
p1250
I1776
sS'includes'
p1251
I1840
sS'important'
p1252
I1194
sS'massachusetts'
p1253
I2320
sS'chris'
p1254
I1789
sS'stocks'
p1255
I123
sS'finals'
p1256
I1573
sS'building'
p1257
I1013
sS'shipping'
p1258
I2185
sS'remote'
p1259
I1993
sS'assets'
p1260
I1715
sS'calls'
p1261
I1070
sS'wife'
p1262
I2121
sS'enrichment'
p1263
I1937
sS'directors'
p1264
I2030
sS'passed'
p1265
I1405
sS'u'
p1266
I65
sS'starting'
p1267
I752
sS'all'
p1268
I111
sS'consider'
p1269
I1672
sS'chinese'
p1270
I725
sS'ali'
p1271
I2420
sS'caused'
p1272
I1304
sS'lack'
p1273
I2486
sS'dollar'
p1274
I337
sS'month'
p1275
I151
sS'spacecraft'
p1276
I1325
sS'code'
p1277
I1271
sS'deadline'
p1278
I1941
sS'talks'
p1279
I300
sS'managed'
p1280
I2411
sS'settlement'
p1281
I1498
sS'children'
p1282
I851
sS'semiconductor'
p1283
I1460
sS'ron'
p1284
I2277
sS'tv'
p1285
I882
sS'pledged'
p1286
I2441
sS'thursday'
p1287
I59
sS'former'
p1288
I143
sS'gary'
p1289
I2118
sS'to'
p1290
I6
sS'program'
p1291
I468
sS'health'
p1292
I590
sS'lawmakers'
p1293
I2350
sS'activities'
p1294
I1951
sS'woman'
p1295
I1184
sS'returned'
p1296
I1119
sS'egyptian'
p1297
I2415
sS'far'
p1298
I706
sS'worst'
p1299
I1420
sS'hewlett'
p1300
I1555
sS'fall'
p1301
I707
sS'sony'
p1302
I796
sS'ticker'
p1303
I196
sS'sans'
p1304
I1179
sS'cable'
p1305
I1430
sS'louis'
p1306
I956
sS'list'
p1307
I883
sS'joined'
p1308
I1693
sS'large'
p1309
I818
sS'saudi'
p1310
I1753
sS'small'
p1311
I629
sS'portable'
p1312
I1825
sS'ten'
p1313
I1755
sS'vioxx'
p1314
I1952
sS'past'
p1315
I392
sS'winds'
p1316
I2452
sS'rate'
p1317
I676
sS'design'
p1318
I1841
sS'pass'
p1319
I1373
sS'further'
p1320
I845
sS'nba'
p1321
I1190
sS'investment'
p1322
I768
sS'what'
p1323
I179
sS'defence'
p1324
I1807
sS'consumers'
p1325
I829
sS'sun'
p1326
I575
sS'witnesses'
p1327
I1619
sS'version'
p1328
I426
sS'abu'
p1329
I1354
sS'scientists'
p1330
I474
sS'racing'
p1331
I1582
sS'public'
p1332
I349
sS'full'
p1333
I666
sS'iran'
p1334
I582
sS'hours'
p1335
I701
sS'operating'
p1336
I588
sS'situation'
p1337
I2146
sS'november'
p1338
I497
sS'strong'
p1339
I301
sS'search'
p1340
I226
sS'prosecutors'
p1341
I1799
sS'ahead'
p1342
I368
sS'losses'
p1343
I1085
sS'allows'
p1344
I1836
sS'soldier'
p1345
I1907
sS'airport'
p1346
I1163
sS'advertising'
p1347
I1336
sS'published'
p1348
I1267
sS'action'
p1349
I646
sS'options'
p1350
I2139
sS'via'
p1351
I1984
sS'family'
p1352
I855
sS'africa'
p1353
I819
sS'backed'
p1354
I1343
sS'href'
p1355
I223
sS'aimed'
p1356
I763
sS'gunmen'
p1357
I2057
sS'armed'
p1358
I1456
sS'shareholders'
p1359
I1350
sS'eye'
p1360
I2179
sS'takes'
p1361
I1446
sS'0'
p1362
I193
sS'two'
p1363
I38
sS'6'
p1364
I130
sS'taken'
p1365
I792
sS'injury'
p1366
I957
sS'markets'
p1367
I765
sS'more'
p1368
I51
sS'flat'
p1369
I1784
sS'israel'
p1370
I573
sS'fellow'
p1371
I2431
sS'company'
p1372
I58
sS'mozilla'
p1373
I1981
sS'putin'
p1374
I1509
sS'broke'
p1375
I1441
sS'known'
p1376
I778
sS'town'
p1377
I961
sS'hardware'
p1378
I2003
sS'keeping'
p1379
I2147
sS'vladimir'
p1380
I1398
sS'science'
p1381
I1394
sS'coalition'
p1382
I1892
sS'remain'
p1383
I1219
sS'nine'
p1384
I644
sS'resources'
p1385
I2323
sS'dec'
p1386
I1148
sS'history'
p1387
I586
sS'brown'
p1388
I1226
sS'messages'
p1389
I2351
sS'share'
p1390
I418
sS'accept'
p1391
I2313
sS'states'
p1392
I148
sS'pushed'
p1393
I2012
sS'numbers'
p1394
I1603
sS'sharp'
p1395
I1494
sS'species'
p1396
I1656
sS'!'
p1397
I1071
sS'information'
p1398
I563
sS'needs'
p1399
I1532
sS'court'
p1400
I201
sS'goal'
p1401
I881
sS'rather'
p1402
I1906
sS'allawi'
p1403
I2254
sS'breaking'
p1404
I1567
sS'dismissed'
p1405
I2461
sS'earnings'
p1406
I331
sS'plant'
p1407
I1526
sS'plans'
p1408
I191
sS'notre'
p1409
I1888
sS'par'
p1410
I1712
sS'crashed'
p1411
I1834
sS'plane'
p1412
I1529
sS'streets'
p1413
I2234
sS'blood'
p1414
I1908
sS'coming'
p1415
I849
sS'fi'
p1416
I2314
sS'pleaded'
p1417
I2483
sS'response'
p1418
I2088
sS'a'
p1419
I5
sS'short'
p1420
I774
sS'vijay'
p1421
I2376
sS'overnight'
p1422
I2019
sS'perhaps'
p1423
I2249
sS'pay'
p1424
I411
sS'banks'
p1425
I1351
sS'playing'
p1426
I1020
sS'help'
p1427
I244
sS'september'
p1428
I428
sS'developed'
p1429
I1232
sS'soon'
p1430
I729
sS'trade'
p1431
I307
sS'held'
p1432
I315
sS'industrial'
p1433
I1495
sS'through'
p1434
I248
sS'committee'
p1435
I1110
sS'signs'
p1436
I1496
sS'its'
p1437
I19
sS'developer'
p1438
I1899
sS'24'
p1439
I627
sS'25'
p1440
I583
sS'26'
p1441
I1077
sS'27'
p1442
I908
sS'arial'
p1443
I1246
sS'21'
p1444
I681
sS'22'
p1445
I935
sS'23'
p1446
I884
sS'pcs'
p1447
I1471
sS'28'
p1448
I963
sS'29'
p1449
I1197
sS'handheld'
p1450
I1868
sS'late'
p1451
I429
sS'reuters'
p1452
I30
sS'systems'
p1453
I373
sS'soccer'
p1454
I1089
sS'might'
p1455
I467
sS'good'
p1456
I536
sS'return'
p1457
I592
sS'seeking'
p1458
I1153
sS'food'
p1459
I695
sS'arsenal'
p1460
I948
sS'foot'
p1461
I1713
sS'stepped'
p1462
I2474
sS'association'
p1463
I648
sS'always'
p1464
I1929
sS'micro'
p1465
I2035
sS'stopped'
p1466
I2491
sS'found'
p1467
I361
sS'heavy'
p1468
I1193
sS'shock'
p1469
I2422
sS'england'
p1470
I338
sS'generation'
p1471
I982
sS'house'
p1472
I494
sS'energy'
p1473
I501
sS'hard'
p1474
I737
sS'reduce'
p1475
I1381
sS'idea'
p1476
I2331
sS'extended'
p1477
I1427
sS'expect'
p1478
I1843
sS'columbia'
p1479
I2339
sS'operation'
p1480
I1346
sS'thing'
p1481
I1739
sS'event'
p1482
I1067
sS'really'
p1483
I1673
sS'deals'
p1484
I2386
sS'missed'
p1485
I1735
sS'robert'
p1486
I1838
sS'since'
p1487
I231
sS'research'
p1488
I192
sS'safety'
p1489
I1081
sS'7'
p1490
I186
sS'issue'
p1491
I1109
sS'reporting'
p1492
I2160
sS'friday'
p1493
I62
sS'sbc'
p1494
I2037
sS'reason'
p1495
I2016
sS'base'
p1496
I1370
sS'members'
p1497
I693
sS'put'
p1498
I444
sS'beginning'
p1499
I1387
sS'yasser'
p1500
I787
sS'driven'
p1501
I2047
sS'owners'
p1502
I1743
sS'benefits'
p1503
I1634
sS'launch'
p1504
I570
sS'computers'
p1505
I733
sS'success'
p1506
I1440
sS'american'
p1507
I173
sS'w'
p1508
I988
sS'pilots'
p1509
I1459
sS'lawsuits'
p1510
I1641
sS'major'
p1511
I195
sS'radical'
p1512
I2183
sS'number'
p1513
I384
sS'done'
p1514
I1690
sS'miss'
p1515
I1210
sS'passes'
p1516
I1626
sS'story'
p1517
I1648
sS'jet'
p1518
I2128
sS'leading'
p1519
I388
sS'threatening'
p1520
I2040
sS'least'
p1521
I203
sS'militant'
p1522
I1057
sS'station'
p1523
I868
sS'warming'
p1524
I1972
sS'storm'
p1525
I1080
sS'nigeria'
p1526
I1633
sS'store'
p1527
I717
sS'summit'
p1528
I1875
sS'selling'
p1529
I809
sS'statement'
p1530
I1120
sS'behind'
p1531
I656
sS'exploded'
p1532
I1501
sS'hotel'
p1533
I1577
sS'park'
p1534
I937
sS'part'
p1535
I327
sS'typhoon'
p1536
I2487
sS'doctors'
p1537
I1716
sS'believe'
p1538
I1443
sS'king'
p1539
I1541
sS'kind'
p1540
I2248
sS'b'
p1541
I488
sS'double'
p1542
I996
sS'recording'
p1543
I2239
sS'toward'
p1544
I865
sS'sentenced'
p1545
I2421
sS'orders'
p1546
I1819
sS'option'
p1547
I2258
sS'sell'
p1548
I674
sS'built'
p1549
I1229
sS'self'
p1550
I2294
sS'scotland'
p1551
I2233
sS'officers'
p1552
I2064
sS'port'
p1553
I2434
sS'also'
p1554
I382
sS'without'
p1555
I520
sS'build'
p1556
I1027
sS'finding'
p1557
I1858
sS'province'
p1558
I1514
sS'play'
p1559
I348
sS'added'
p1560
I999
sS'electric'
p1561
I2210
sS'quote'
p1562
I404
sS'english'
p1563
I1667
sS'reach'
p1564
I810
sS'chart'
p1565
I1823
sS'most'
p1566
I140
sS'virus'
p1567
I1407
sS'plan'
p1568
I308
sS'significant'
p1569
I1668
sS'70'
p1570
I2043
sS'services'
p1571
I257
sS'seasons'
p1572
I2399
sS'approved'
p1573
I932
sS'mobile'
p1574
I272
sS'clear'
p1575
I1123
sS'hamid'
p1576
I1744
sS'bodies'
p1577
I1963
sS'barrel'
p1578
I661
sS'microsoft'
p1579
I119
sS'joining'
p1580
I2475
sS'sector'
p1581
I1348
sS'thomas'
p1582
I2380
sS'golf'
p1583
I1216
sS'rebels'
p1584
I887
sS'gold'
p1585
I372
sS'gates'
p1586
I2457
sS'nasdaq'
p1587
I931
sS'session'
p1588
I1433
sS'businesses'
p1589
I873
sS'jury'
p1590
I2253
sS'font'
p1591
I635
sS'fine'
p1592
I2309
sS'find'
p1593
I830
sS'impact'
p1594
I1517
sS'cell'
p1595
I820
sS'giant'
p1596
I236
sS'northern'
p1597
I500
sS'justice'
p1598
I1205
sS'failed'
p1599
I781
sS'flights'
p1600
I1986
sS'wayne'
p1601
I2085
sS'8'
p1602
I319
sS'cuba'
p1603
I2324
sS'giants'
p1604
I750
sS'his'
p1605
I31
sS'hit'
p1606
I266
sS'gains'
p1607
I940
sS'express'
p1608
I1604
sS'grew'
p1609
I1653
sS'ninth'
p1610
I1729
sS'theft'
p1611
I2353
sS'during'
p1612
I202
sS'him'
p1613
I256
sS'doubled'
p1614
I2228
sS'banking'
p1615
I1670
sS'common'
p1616
I1695
sS'activity'
p1617
I1915
sS'x'
p1618
I1512
sS'set'
p1619
I217
sS'intelligence'
p1620
I1415
sS'sex'
p1621
I2166
sS'manning'
p1622
I2242
sS'see'
p1623
I727
sS'defense'
p1624
I561
sS'are'
p1625
I39
sS'sea'
p1626
I1723
sS'close'
p1627
I457
sS'ebay'
p1628
I1947
sS'arm'
p1629
I1885
sS'declined'
p1630
I1967
sS'threats'
p1631
I1896
sS'visiting'
p1632
I2385
sS'movie'
p1633
I1335
sS'century'
p1634
I1491
sS'fans'
p1635
I637
sS'won'
p1636
I237
sS'consecutive'
p1637
I1187
sS'conditions'
p1638
I1857
sS'available'
p1639
I911
sS'seeded'
p1640
I2243
sS'korea'
p1641
I615
sS'recently'
p1642
I1133
sS'creating'
p1643
I2272
sS'missing'
p1644
I1036
sS'sold'
p1645
I933
sS'attention'
p1646
I2032
sS'aircraft'
p1647
I1195
sS'ranked'
p1648
I998
sS'opposition'
p1649
I747
sS'franchise'
p1650
I2355
sS'league'
p1651
I167
sS'c'
p1652
I1083
sS'last'
p1653
I66
sS'annual'
p1654
I869
sS'foreign'
p1655
I378
sS'connection'
p1656
I2462
sS'became'
p1657
I1121
sS'baltimore'
p1658
I1502
sS'yukos'
p1659
I1285
sS'yards'
p1660
I730
sS'nextel'
p1661
I1468
sS'point'
p1662
I686
sS'community'
p1663
I1488
sS'tennessee'
p1664
I1934
sS'linux'
p1665
I580
sS'doping'
p1666
I2328
sS'throughout'
p1667
I2332
sS'decline'
p1668
I1334
sS'java'
p1669
I2135
sS'raise'
p1670
I1328
sS'pt'
p1671
I2062
sS'create'
p1672
I1065
sS'political'
p1673
I517
sS'due'
p1674
I525
sS'strategy'
p1675
I1599
sS'hitting'
p1676
I2326
sS'rivals'
p1677
I939
sS'secret'
p1678
I2237
sS'ireland'
p1679
I1102
sS'meeting'
p1680
I521
sS'labour'
p1681
I2359
sS'pm'
p1682
I1669
sS'firm'
p1683
I369
sS'flight'
p1684
I943
sS'champion'
p1685
I484
sS'boy'
p1686
I2432
sS'fire'
p1687
I769
sS'gas'
p1688
I788
sS'great'
p1689
I827
sS'fund'
p1690
I760
sS'38'
p1691
I2152
sS'lives'
p1692
I2362
sS'demand'
p1693
I472
sS'prices'
p1694
I115
sS'despite'
p1695
I367
sS'georgia'
p1696
I2006
sS'look'
p1697
I736
sS'solid'
p1698
I2246
sS'straight'
p1699
I554
sS'bill'
p1700
I614
sS'elections'
p1701
I585
sS'governor'
p1702
I2360
sS'pace'
p1703
I1306
sS'while'
p1704
I194
sS'smart'
p1705
I2126
sS'32'
p1706
I2212
sS'pack'
p1707
I1902
sS'real'
p1708
I655
sS'hoping'
p1709
I1291
sS'voters'
p1710
I1237
sS'cents'
p1711
I1833
sS'motors'
p1712
I1698
sS'disappointing'
p1713
I2044
sS'itself'
p1714
I1399
sS'ready'
p1715
I1030
sS'34'
p1716
I2005
sS'chase'
p1717
I2412
sS'italy'
p1718
I1165
sS'read'
p1719
I2406
sS'widely'
p1720
I1998
sS'grand'
p1721
I623
sS'9'
p1722
I394
sS'survey'
p1723
I910
sS'federer'
p1724
I2296
sS'dozen'
p1725
I2293
sS'conflict'
p1726
I1549
sS'higher'
p1727
I316
sS'development'
p1728
I794
sS'used'
p1729
I389
sS'lawyers'
p1730
I2008
sS'blair'
p1731
I1062
sS'yesterday'
p1732
I67
sS'sym'
p1733
I2096
sS'amd'
p1734
I1508
sS'levels'
p1735
I1598
sS'arrived'
p1736
I1403
sS'user'
p1737
I2286
sS'brussels'
p1738
I1692
sS'euro'
p1739
I859
sS'lower'
p1740
I492
sS'barry'
p1741
I1839
sS'database'
p1742
I2322
sS'spent'
p1743
I1390
sS'person'
p1744
I1787
sS'edge'
p1745
I2048
sS'withdraw'
p1746
I2090
sS'swiss'
p1747
I2280
sS'organization'
p1748
I1075
sS'spend'
p1749
I2041
sS'yankees'
p1750
I597
sS'atomic'
p1751
I1766
sS'questions'
p1752
I1586
sS'world'
p1753
I56
sS'taiwan'
p1754
I1462
sS'prince'
p1755
I1852
sS'cut'
p1756
I370
sS'cup'
p1757
I219
sS'workers'
p1758
I453
sS'deputy'
p1759
I2206
sS'source'
p1760
I454
sS'internal'
p1761
I2288
sS'sydney'
p1762
I1376
sS'remaining'
p1763
I1990
sS'chairman'
p1764
I559
sS'bin'
p1765
I2271
sS'customers'
p1766
I471
sS'australia'
p1767
I332
sS'march'
p1768
I1476
sS'emergency'
p1769
I1864
sS'demands'
p1770
I1810
sS'big'
p1771
I299
sS'bid'
p1772
I310
sS'game'
p1773
I93
sS'bit'
p1774
I1651
sS'd'
p1775
I1054
sS'semi'
p1776
I2189
sS'message'
p1777
I1649
sS'heart'
p1778
I886
sS'communications'
p1779
I579
sS'continue'
p1780
I874
sS'ivan'
p1781
I1060
sS'google'
p1782
I309
sS'often'
p1783
I1652
sS'senate'
p1784
I1466
sS'some'
p1785
I128
sS'back'
p1786
I132
sS'economic'
p1787
I360
sS'sprint'
p1788
I1435
sS'preparing'
p1789
I1844
sS'broadband'
p1790
I1358
sS'decision'
p1791
I528
sS'per'
p1792
I424
sS'either'
p1793
I2302
sS'be'
p1794
I36
sS'measures'
p1795
I2500
sS'run'
p1796
I255
sS'300'
p1797
I1901
sS'martin'
p1798
I1568
sS'continuing'
p1799
I1970
sS'use'
p1800
I395
sS'refused'
p1801
I2261
sS'step'
p1802
I746
sS'hostages'
p1803
I1720
sS'output'
p1804
I1748
sS'by'
p1805
I24
sS'pervez'
p1806
I2200
sS'goods'
p1807
I1910
sS'anything'
p1808
I2469
sS'75'
p1809
I2084
sS'range'
p1810
I1099
sS'involving'
p1811
I2267
sS'messaging'
p1812
I2348
sS'block'
p1813
I1707
sS'colorado'
p1814
I1689
sS'terrorists'
p1815
I1944
sS'helvetica'
p1816
I1247
sS'into'
p1817
I75
sS'within'
p1818
I726
sS'retailer'
p1819
I766
sS'awaited'
p1820
I1694
sS'servers'
p1821
I1326
sS'martinez'
p1822
I2176
sS'nothing'
p1823
I1642
sS'because'
p1824
I265
sS'france'
p1825
I576
sS'bankruptcy'
p1826
I702
sS'bangladesh'
p1827
I2390
sS'spam'
p1828
I1092
sS'spending'
p1829
I856
sS'apparently'
p1830
I1700
sS'question'
p1831
I1311
sS'fast'
p1832
I1263
sS'vendors'
p1833
I2409
sS'doubt'
p1834
I2391
sS'dodgers'
p1835
I2173
sS'nikkei'
p1836
I2138
sS'forward'
p1837
I1066
sS'vienna'
p1838
I2150
sS'files'
p1839
I1994
sS'himself'
p1840
I1323
sS'jewish'
p1841
I2197
sS'serif'
p1842
I1250
sS'larry'
p1843
I2140
sS'atlantic'
p1844
I1802
sS'pacific'
p1845
I1538
sS'delta'
p1846
I1314
sS'hopes'
p1847
I700
sS'line'
p1848
I504
sS'raising'
p1849
I1470
sS'posted'
p1850
I601
sS'info'
p1851
I1874
sS'up'
p1852
I57
sS'us'
p1853
I40
sS'planet'
p1854
I1866
sS'windows'
p1855
I362
sS'un'
p1856
I478
sS'uk'
p1857
I430
sS'chelsea'
p1858
I1395
sS'called'
p1859
I343
sS'bell'
p1860
I2240
sS'associated'
p1861
I1409
sS'commissioner'
p1862
I1793
sS'doesn'
p1863
I2371
sS'single'
p1864
I1087
sS'warning'
p1865
I1091
sS'rally'
p1866
I870
sS'traditional'
p1867
I2050
sS'peace'
p1868
I522
sS'fears'
p1869
I1051
sS'vendor'
p1870
I2342
sS'application'
p1871
I1147
sS'income'
p1872
I1539
sS'department'
p1873
I486
sS'draw'
p1874
I1400
sS'users'
p1875
I347
sS'reportedly'
p1876
I1880
sS'kansas'
p1877
I1393
sS'problems'
p1878
I924
sS'prepared'
p1879
I1745
sS'helping'
p1880
I1411
sS'militants'
p1881
I616
sS'allowing'
p1882
I2116
sS'sides'
p1883
I2215
sS'ago'
p1884
I293
sS'land'
p1885
I1850
sS'e'
p1886
I458
sS'vice'
p1887
I1280
sS'dvd'
p1888
I1220
sS'age'
p1889
I1931
sS'vehicles'
p1890
I2114
sS'2002'
p1891
I1510
sS'2003'
p1892
I1009
sS'2000'
p1893
I1520
sS'nasa'
p1894
I571
sS'2006'
p1895
I1003
sS'2004'
p1896
I136
sS'2005'
p1897
I440
sS'oracle'
p1898
I475
sS'fresh'
p1899
I980
sS'having'
p1900
I1029
sS'once'
p1901
I704
sS'gt'
p1902
I48
sS'jason'
p1903
I1418
sS'issued'
p1904
I1231
sS'results'
p1905
I540
sS'steve'
p1906
I1001
sS'go'
p1907
I380
sS'issues'
p1908
I1124
sS'seemed'
p1909
I2468
sS'young'
p1910
I1007
sS'send'
p1911
I1251
sS'citing'
p1912
I1128
sS'quarterly'
p1913
I568
sS'include'
p1914
I1751
sS'sent'
p1915
I905
sS'seized'
p1916
I2363
sS'continues'
p1917
I1530
sS'wave'
p1918
I2163
sS'unbeaten'
p1919
I2181
sS'putting'
p1920
I1876
sS'continued'
p1921
I779
sS'bryant'
p1922
I2167
sS'entire'
p1923
I2187
sS'eased'
p1924
I2184
sS'f'
p1925
I1979
sS'michael'
p1926
I493
sS'try'
p1927
I970
sS'threat'
p1928
I990
sS'race'
p1929
I539
sS'smaller'
p1930
I2007
sS'jump'
p1931
I1531
sS'video'
p1932
I432
sS'picked'
p1933
I2291
sS'download'
p1934
I1564
sS'makers'
p1935
I1369
sS'index'
p1936
I1764
sS'business'
p1937
I146
sS'chicago'
p1938
I406
sS'giving'
p1939
I971
sS'schedule'
p1940
I2273
sS'expressed'
p1941
I2158
sS'networks'
p1942
I713
sS'access'
p1943
I689
sS'paying'
p1944
I2499
sS'waiting'
p1945
I2476
sS'indian'
p1946
I828
sS'twins'
p1947
I2478
sS'capital'
p1948
I446
sS'firms'
p1949
I1272
sS'bird'
p1950
I2358
sS'body'
p1951
I1038
sS'led'
p1952
I414
sS'lee'
p1953
I2377
sS'exchange'
p1954
I621
sS'pushing'
p1955
I2418
sS'commercial'
p1956
I1145
sS'highly'
p1957
I2392
sS'following'
p1958
I396
sS'let'
p1959
I1043
sS'others'
p1960
I791
sS'kidnapped'
p1961
I1233
sS'ukraine'
p1962
I1969
sS'39'
p1963
I12
sS'didn'
p1964
I1778
sS'copyright'
p1965
I2241
sS'technical'
p1966
I2177
sS'involved'
p1967
I1859
sS'31'
p1968
I1286
sS'30'
p1969
I419
sS'36'
p1970
I420
sS'35'
p1971
I1200
sS'leaving'
p1972
I1127
sS'merger'
p1973
I1287
sS'products'
p1974
I450
sS'defeat'
p1975
I1042
sS'residents'
p1976
I1616
sS'makes'
p1977
I1259
sS'maker'
p1978
I199
sS'named'
p1979
I919
sS'firefox'
p1980
I1805
sS'apple'
p1981
I410
sS'arafat'
p1982
I682
sS'egypt'
p1983
I1658
sS'win'
p1984
I150
sS'private'
p1985
I878
sS'names'
p1986
I2068
sS'motor'
p1987
I1344
sS'scandal'
p1988
I1297
sS'tools'
p1989
I1578
sS'confidence'
p1990
I1299
sS'from'
p1991
I29
sS'usa'
p1992
I2419
sS'remains'
p1993
I1252
sS'illegal'
p1994
I1255
sS'ministers'
p1995
I1659
sS'next'
p1996
I110
sS'few'
p1997
I600
sS'camera'
p1998
I2260
sS'vehicle'
p1999
I1962
sS'eagles'
p2000
I1824
sS'themselves'
p2001
I1606
sS'panel'
p2002
I1612
sS'parliament'
p2003
I1261
sS'upcoming'
p2004
I1780
sS'started'
p2005
I1056
sS'missile'
p2006
I1661
sS'carrying'
p2007
I1845
sS'nascar'
p2008
I1925
sS'sharply'
p2009
I1265
sS'women'
p2010
I577
sS'customer'
p2011
I1811
sS'majority'
p2012
I1699
sS'account'
p2013
I2398
sS'announcing'
p2014
I2270
sS'sanctions'
p2015
I1546
sS'this'
p2016
I50
sS'islamabad'
p2017
I1884
sS'challenge'
p2018
I1046
sS'stroke'
p2019
I2031
sS'of'
p2020
I7
sS'meet'
p2021
I825
sS'closing'
p2022
I1999
sS'control'
p2023
I671
sS'beijing'
p2024
I815
sS'sri'
p2025
I2268
sS'council'
p2026
I802
sS'links'
p2027
I2208
sS'providers'
p2028
I2148
sS'process'
p2029
I1004
sS'tax'
p2030
I697
sS'high'
p2031
I135
sS'renewed'
p2032
I2078
sS'something'
p2033
I1380
sS'sought'
p2034
I1846
sS'sir'
p2035
I1958
sS'united'
p2036
I91
sS'democracy'
p2037
I1891
sS'six'
p2038
I273
sS'traders'
p2039
I1608
sS'brian'
p2040
I2098
sS'forest'
p2041
I2438
sS'instead'
p2042
I1254
sS'afp'
p2043
I176
sS'stock'
p2044
I323
sS'profile'
p2045
I423
sS'watch'
p2046
I1413
sS'highs'
p2047
I1597
sS'abuse'
p2048
I2384
sS'ties'
p2049
I2143
sS'boeing'
p2050
I1308
sS'light'
p2051
I1170
sS'lines'
p2052
I1015
sS'processor'
p2053
I1361
sS'chief'
p2054
I207
sS'allow'
p2055
I876
sS'software'
p2056
I108
sS'fastest'
p2057
I1826
sS'houston'
p2058
I572
sS'infotype'
p2059
I2100
sS'closely'
p2060
I2497
sS'producer'
p2061
I1426
sS'move'
p2062
I326
sS'alliance'
p2063
I1736
sS'including'
p2064
I289
sS'looks'
p2065
I1479
sS'perfect'
p2066
I2463
sS'delay'
p2067
I1982
sS'la'
p2068
I2238
sS'labor'
p2069
I890
sS'lt'
p2070
I49
sS'marsh'
p2071
I2480
sS'holiday'
p2072
I901
sS'crash'
p2073
I1920
sS'greater'
p2074
I2153
sS'auto'
p2075
I1445
sS'practice'
p2076
I1439
sS'toshiba'
p2077
I2485
sS'cutting'
p2078
I1548
sS'hands'
p2079
I1709
sS'front'
p2080
I1242
sS'republican'
p2081
I1319
sS'investor'
p2082
I232
sS'day'
p2083
I116
sS'presidential'
p2084
I354
sS'masters'
p2085
I1506
sS'warned'
p2086
I598
sS'university'
p2087
I526
sS'nfl'
p2088
I892
sS'playoff'
p2089
I1447
sS'rockets'
p2090
I2502
sS'bills'
p2091
I2252
sS'warner'
p2092
I1571
sS'mets'
p2093
I1917
sS'doing'
p2094
I1995
sS'parties'
p2095
I2056
sS'related'
p2096
I1045
sS'books'
p2097
I2207
sS'our'
p2098
I1052
sS'80'
p2099
I1827
sS'special'
p2100
I1094
sS'out'
p2101
I76
sS"'"
p2102
I297
sS'entertainment'
p2103
I1106
sS'dominated'
p2104
I2289
sS'electronics'
p2105
I822
sS'calif'
p2106
I898
sS'red'
p2107
I264
sS'shut'
p2108
I1976
sS'spot'
p2109
I1475
sS'ipod'
p2110
I926
sS'withdrawal'
p2111
I2201
sS'embassy'
p2112
I1609
sS'release'
p2113
I413
sS'regulators'
p2114
I907
sS'york'
p2115
I68
sS'van'
p2116
I2117
sS'yard'
p2117
I1419
sS'hostile'
p2118
I1241
sS'applications'
p2119
I1005
sS'could'
p2120
I98
sS'florida'
p2121
I502
sS'times'
p2122
I596
sS'ltd'
p2123
I645
sS'davis'
p2124
I1222
sS'hussein'
p2125
I1911
sS'retail'
p2126
I944
sS'south'
p2127
I227
sS'pga'
p2128
I2129
sS'powerful'
p2129
I848
sS'owned'
p2130
I1953
sS'philadelphia'
p2131
I929
sS'improving'
p2132
I2410
sS'owner'
p2133
I1518
sS'reached'
p2134
I764
sS'nyse'
p2135
I1155
sS'sharon'
p2136
I1100
sS'management'
p2137
I516
sS'start'
p2138
I320
sS'bears'
p2139
I2107
sS'data'
p2140
I311
sS'system'
p2141
I267
sS'relations'
p2142
I2336
sS'grow'
p2143
I2416
sS'priority'
p2144
I1927
sS'their'
p2145
I37
sS'attack'
p2146
I408
sS'pakistani'
p2147
I1565
sS'final'
p2148
I221
sS'stars'
p2149
I1882
sS'completed'
p2150
I1646
sS'acquire'
p2151
I1281
sS'environmental'
p2152
I2407
sS'july'
p2153
I1144
sS'steel'
p2154
I2133
sS'anaheim'
p2155
I1686
sS'partnership'
p2156
I2073
sS'washingtonpost'
p2157
I1553
sS'tonight'
p2158
I1240
sS'defending'
p2159
I1621
sS'have'
p2160
I35
sS'sen'
p2161
I1704
sS'need'
p2162
I864
sS'border'
p2163
I1177
sS'linked'
p2164
I1503
sS'documents'
p2165
I1765
sS'dallas'
p2166
I1290
sS'agency'
p2167
I403
sS'able'
p2168
I1055
sS'mid'
p2169
I1453
sS'concerns'
p2170
I776
sS'which'
p2171
I92
sS'bus'
p2172
I2352
sS'jail'
p2173
I1813
sS'singh'
p2174
I1175
sS'brand'
p2175
I2182
sS'worldwide'
p2176
I1330
sS'unless'
p2177
I2074
sS'clash'
p2178
I2482
sS'centre'
p2179
I2303
sS'who'
p2180
I72
sS'dutch'
p2181
I1136
sS'eight'
p2182
I495
sS'preliminary'
p2183
I2124
sS'device'
p2184
I1157
sS'cabinet'
p2185
I2033
sS'medal'
p2186
I694
sS'why'
p2187
I1171
sS'upset'
p2188
I2046
sS'disease'
p2189
I1797
sS'face'
p2190
I351
sS'looked'
p2191
I1654
sS'wounded'
p2192
I1098
sS'fact'
p2193
I2347
sS'goals'
p2194
I1486
sS'chances'
p2195
I2343
sS'agreed'
p2196
I259
sS'charles'
p2197
I1950
sS'wins'
p2198
I2103
sS'bring'
p2199
I1034
sS'planning'
p2200
I1347
sS'manchester'
p2201
I799
sS'soldiers'
p2202
I739
sS'debate'
p2203
I1274
sS'decade'
p2204
I1388
sS'staff'
p2205
I975
sS'partners'
p2206
I1817
sS'based'
p2207
I229
sS'financequotelookup'
p2208
I2097
sS'('
p2209
I15
sS'winner'
p2210
I1293
sS'unions'
p2211
I2029
sS'should'
p2212
I381
sS'jan'
p2213
I2226
sS'score'
p2214
I1922
sS'candidates'
p2215
I1978
sS'fuel'
p2216
I842
sS'communist'
p2217
I2433
sS'local'
p2218
I740
sS'hope'
p2219
I1064
sS'sued'
p2220
I2404
sS'bonds'
p2221
I1551
sS'beat'
p2222
I431
sS'familiar'
p2223
I1696
sS'michigan'
p2224
I1507
sS'overall'
p2225
I2087
sS'joint'
p2226
I1383
sS'fraud'
p2227
I1093
sS'cubs'
p2228
I1946
sS'words'
p2229
I2367
sS'probably'
p2230
I1382
sS'kong'
p2231
I1338
sS'chips'
p2232
I1122
sS'areas'
p2233
I1645
sS'ended'
p2234
I657
sS'calling'
p2235
I1355
sS'indonesian'
p2236
I2009
sS'she'
p2237
I482
sS'ohio'
p2238
I1497
sS'view'
p2239
I1894
sS'europe'
p2240
I441
sS'j'
p2241
I1657
sS'acquired'
p2242
I2059
sS'national'
p2243
I183
sS'pitch'
p2244
I2402
sS'edition'
p2245
I1867
sS'computer'
p2246
I174
sS'greece'
p2247
I1116
sS'closer'
p2248
I1105
sS'extend'
p2249
I2194
sS'has'
p2250
I26
sS'nuclear'
p2251
I329
sS'state'
p2252
I129
sS'closed'
p2253
I1208
sS'crude'
p2254
I480
sS'progress'
p2255
I1697
sS'bought'
p2256
I1763
sS'shiite'
p2257
I1815
sS'ability'
p2258
I2165
sS'opening'
p2259
I663
sS'deliver'
p2260
I2203
sS'agencies'
p2261
I1959
sS'job'
p2262
I611
sS'takeover'
p2263
I749
sS'joe'
p2264
I1964
sS'key'
p2265
I407
sS'police'
p2266
I235
sS'lawsuit'
p2267
I1079
sS'david'
p2268
I631
sS'karzai'
p2269
I1734
sS'hits'
p2270
I1614
sS'instant'
p2271
I2149
sS'career'
p2272
I710
sS'kofi'
p2273
I2369
sS'taking'
p2274
I532
sS'drug'
p2275
I409
sS'april'
p2276
I2357
sS'figures'
p2277
I1302
sS'jersey'
p2278
I2329
sS'co'
p2279
I168
sS'gone'
p2280
I2001
sS'wall'
p2281
I451
sS'tuesday'
p2282
I54
sS'irish'
p2283
I1671
sS'walt'
p2284
I2154
sS'oakland'
p2285
I1199
sS'cent'
p2286
I986
sS'gaza'
p2287
I425
sS'proposal'
p2288
I1341
sS'mike'
p2289
I985
sS'liverpool'
p2290
I1821
sS'general'
p2291
I279
sS'verizon'
p2292
I2310
sS'both'
p2293
I421
sS'am'
p2294
I1635
sS'astros'
p2295
I1421
sS'climate'
p2296
I1829
sS'al'
p2297
I284
sS'finished'
p2298
I1727
sS'improved'
p2299
I1940
sS'atlanta'
p2300
I862
sS'an'
p2301
I28
sS'spain'
p2302
I834
sS'homer'
p2303
I1747
sS'homes'
p2304
I1146
sS'troubled'
p2305
I1428
sS'ap'
p2306
I46
sS'as'
p2307
I18
sS'value'
p2308
I1630
sS'will'
p2309
I33
sS'wild'
p2310
I1572
sS'supply'
p2311
I942
sS've'
p2312
I2178
sS'almost'
p2313
I622
sS'site'
p2314
I564
sS'helped'
p2315
I659
sS'dual'
p2316
I2470
sS'claimed'
p2317
I959
sS'partner'
p2318
I2229
sS'halt'
p2319
I2216
sS'terrorist'
p2320
I1207
sS')'
p2321
I16
sS'began'
p2322
I642
sS'administration'
p2323
I664
sS'cross'
p2324
I2151
sS'member'
p2325
I1164
sS'parts'
p2326
I1401
sS'largest'
p2327
I165
sS'shuttle'
p2328
I2219
sS'party'
p2329
I477
sS'terrorism'
p2330
I972
sS'gets'
p2331
I1975
sS'powell'
p2332
I1733
sS'difficult'
p2333
I2235
sS'injured'
p2334
I712
sS'ball'
p2335
I1434
sS'http'
p2336
I208
sS'again'
p2337
I449
sS'receiver'
p2338
I1861
sS'effect'
p2339
I2214
sS'forecasts'
p2340
I2010
sS'sadr'
p2341
I1559
sS'novell'
p2342
I2075
sS'afghan'
p2343
I1156
sS'expand'
p2344
I1624
sS'off'
p2345
I122
sS'center'
p2346
I496
sS'i'
p2347
I247
sS'indonesia'
p2348
I1481
sS'well'
p2349
I447
sS'fighting'
p2350
I847
sS'antonio'
p2351
I2439
sS'thought'
p2352
I1203
sS'premiership'
p2353
I2102
sS'deadly'
p2354
I1644
sS'position'
p2355
I1078
sS'latest'
p2356
I313
sS'stores'
p2357
I618
sS'rocket'
p2358
I1227
sS'less'
p2359
I641
sS'increasingly'
p2360
I2018
sS'offensive'
p2361
I1162
sS'executive'
p2362
I296
sS'domestic'
p2363
I1454
sS'sources'
p2364
I1048
sS'interim'
p2365
I1115
sS'paul'
p2366
I753
sS'41'
p2367
I1775
sS'web'
p2368
I254
sS'tight'
p2369
I2002
sS'drive'
p2370
I906
sS'smith'
p2371
I2045
sS'discuss'
p2372
I1977
sS'arrest'
p2373
I2224
sS'add'
p2374
I1804
sS'book'
p2375
I2089
sS'match'
p2376
I566
sS'tests'
p2377
I1955
sS'increased'
p2378
I969
sS'government'
p2379
I94
sS'utah'
p2380
I1770
sS'historic'
p2381
I1812
sS'five'
p2382
I181
sS'know'
p2383
I1088
sS'press'
p2384
I427
sS'immediately'
p2385
I1924
sS'msft'
p2386
I1772
sS'loss'
p2387
I385
sS'like'
p2388
I278
sS'lost'
p2389
I574
sS'miami'
p2390
I803
sS'admitted'
p2391
I1945
sS'james'
p2392
I1366
sS'become'
p2393
I552
sS'works'
p2394
I2490
sS'soft'
p2395
I2397
sS'page'
p2396
I2429
sS'italian'
p2397
I900
sS'najaf'
p2398
I1202
sS'authority'
p2399
I2112
sS'growth'
p2400
I324
sS'cleveland'
p2401
I1309
sS'home'
p2402
I177
sS'peter'
p2403
I2382
sS'nokia'
p2404
I1461
sS'lead'
p2405
I218
sS'avoid'
p2406
I1260
sS'hurricane'
p2407
I527
sS'does'
p2408
I767
sS'leader'
p2409
I245
sS'?'
p2410
I100
sS'reaching'
p2411
I2171
sS'journal'
p2412
I2058
sS'monetary'
p2413
I2449
sS'expansion'
p2414
I1779
sS'pressure'
p2415
I893
sS'host'
p2416
I1262
sS'although'
p2417
I1143
sS'offset'
p2418
I2466
sS'r'
p2419
I2036
sS'stage'
p2420
I1221
sS'gained'
p2421
I2378
sS'about'
p2422
I71
sS'rare'
p2423
I1991
sS'carried'
p2424
I2496
sS'getting'
p2425
I872
sS'processors'
p2426
I2321
sS'urged'
p2427
I1104
sS'surge'
p2428
I2193
sS'angeles'
p2429
I524
sS'holdings'
p2430
I1505
sS'carrier'
p2431
I1138
sS'introduced'
p2432
I1368
sS'executives'
p2433
I824
sS'own'
p2434
I594
sS'falluja'
p2435
I2161
sS'previously'
p2436
I1627
sS'washington'
p2437
I134
sS'tackle'
p2438
I2346
sS'guard'
p2439
I978
sS'weather'
p2440
I1444
sS'tiny'
p2441
I2079
sS'cingular'
p2442
I2195
sS'accused'
p2443
I640
sS'pc'
p2444
I609
sS'housing'
p2445
I2366
sS'overtime'
p2446
I2145
sS'biggest'
p2447
I292
sS'fiscal'
p2448
I1523
sS'cricket'
p2449
I1084
sS'buy'
p2450
I402
sS'north'
p2451
I280
sS'stadium'
p2452
I633
sS'funds'
p2453
I1406
sS'hp'
p2454
I2067
sS'but'
p2455
I47
sS'construction'
p2456
I2327
sS'gain'
p2457
I1432
sS'highest'
p2458
I1196
sS'he'
p2459
I44
sS'made'
p2460
I189
sS'packard'
p2461
I1554
sS'whether'
p2462
I476
sS'official'
p2463
I303
sS'signed'
p2464
I604
sS'record'
p2465
I159
sS'below'
p2466
I1301
sS'ruling'
p2467
I964
sS'problem'
p2468
I1386
sS'dame'
p2469
I1898
sS'minutes'
p2470
I1073
sS'display'
p2471
I1749
sS'supreme'
p2472
I1294
sS'shooting'
p2473
I2099
sS'inc'
p2474
I61
sS'diego'
p2475
I1536
sS'mutual'
p2476
I1879
sS'48'
p2477
I1938
sS'49'
p2478
I1740
sS'corporation'
p2479
I1463
sS'45'
p2480
I1842
sS'percent'
p2481
I105
sS'treatment'
p2482
I1914
sS'40'
p2483
I1031
sS'peoplesoft'
p2484
I560
sS'other'
p2485
I149
sS'details'
p2486
I1761
sS'mass'
p2487
I1450
sS'francisco'
p2488
I366
sS'star'
p2489
I542
sS'monday'
p2490
I52
sS'class'
p2491
I1710
sS'june'
p2492
I1591
sS'stay'
p2493
I1416
sS'chance'
p2494
I994
sS'nintendo'
p2495
I2025
sS'dolphins'
p2496
I1719
sS'using'
p2497
I545
sS'samsung'
p2498
I2464
sS'resolution'
p2499
I1801
sS'earthquake'
p2500
I2257
sS'rule'
p2501
I1563
sS'compete'
p2502
I2162
sS'pension'
p2503
I1930
s.