(dp0
S'inning'
p1
I991
sS'limited'
p2
I2244
sS'copy'
p3
I3709
sS'doubts'
p4
I3705
sS'destroyed'
p5
I3546
sS'yellow'
p6
I4781
sS'chaos'
p7
I4662
sS'four'
p8
I131
sS'andre'
p9
I2650
sS'protest'
p10
I1786
sS'woods'
p11
I1371
sS'asian'
p12
I1039
sS'controversial'
p13
I1316
sS'aides'
p14
I4592
sS'captain'
p15
I995
sS'towns'
p16
I4913
sS'forget'
p17
I3745
sS'increase'
p18
I602
sS'votes'
p19
I2256
sS'pedro'
p20
I2111
sS'founder'
p21
I2345
sS'aug'
p22
I1022
sS'paris'
p23
I692
sS'160'
p24
I3399
sS'adviser'
p25
I4951
sS'pensions'
p26
I4318
sS'verdana'
p27
I1245
sS'containing'
p28
I4604
sS'opener'
p29
I1803
sS'voted'
p30
I1781
sS'warplanes'
p31
I3952
sS'under'
p32
I211
sS'lord'
p33
I4927
sS'worth'
p34
I946
sS'kidnapping'
p35
I4636
sS'placed'
p36
I2015
sS'pact'
p37
I3551
sS'updated'
p38
I3811
sS'breeders'
p39
I4843
sS'risk'
p40
I1049
sS'cavaliers'
p41
I3624
sS'rise'
p42
I634
sS'dell'
p43
I1139
sS'reiterated'
p44
I4892
sS'shoot'
p45
I4602
sS'stolen'
p46
I4457
sS'every'
p47
I888
sS'jack'
p48
I2599
sS'kick'
p49
I2890
sS'creditors'
p50
I4956
sS'affect'
p51
I3802
sS'exporters'
p52
I3383
sS'bringing'
p53
I1760
sS'lehman'
p54
I4357
sS'vast'
p55
I3179
sS'identity'
p56
I2605
sS'believed'
p57
I1905
sS'school'
p58
I530
sS'dominate'
p59
I4845
sS'prize'
p60
I1234
sS'slowed'
p61
I3217
sS'facilities'
p62
I4039
sS'cause'
p63
I1647
sS'companies'
p64
I209
sS'wednesday'
p65
I53
sS'integrated'
p66
I4204
sS'frozen'
p67
I4909
sS'roddick'
p68
I2451
sS'announced'
p69
I127
sS'calendar'
p70
I4437
sS'venus'
p71
I4770
sS'sponsored'
p72
I3830
sS'heading'
p73
I2156
sS'triumph'
p74
I3498
sS'techweb'
p75
I4971
sS'jeff'
p76
I1758
sS'jamaica'
p77
I4517
sS'expanded'
p78
I2686
sS'force'
p79
I626
sS'leaders'
p80
I473
sS'screens'
p81
I4966
sS'phones'
p82
I780
sS'warns'
p83
I4116
sS'bankers'
p84
I4699
sS'estimates'
p85
I1754
sS'japanese'
p86
I503
sS'budget'
p87
I1683
sS'surrounding'
p88
I3332
sS'second'
p89
I102
sS'street'
p90
I356
sS'follow'
p91
I2929
sS'chen'
p92
I4310
sS'01'
p93
I4881
sS'n'
p94
I107
sS'machines'
p95
I1374
sS'even'
p96
I294
sS'established'
p97
I3930
sS'disk'
p98
I3287
sS'panama'
p99
I4981
sS'beaten'
p100
I3436
sS'nec'
p101
I3532
sS'asia'
p102
I1002
sS'journalist'
p103
I3673
sS'spokesman'
p104
I976
sS'deficits'
p105
I4977
sS'chechen'
p106
I2787
sS'above'
p107
I987
sS'toll'
p108
I1746
sS'supplier'
p109
I2906
sS'supplies'
p110
I1183
sS'net'
p111
I553
sS'increasing'
p112
I2081
sS'ever'
p113
I625
sS'disney'
p114
I1363
sS'told'
p115
I512
sS'stern'
p116
I3151
sS'specialist'
p117
I4887
sS'kicked'
p118
I3404
sS'hero'
p119
I4723
sS'whose'
p120
I1074
sS'men'
p121
I437
sS'richest'
p122
I4711
sS'here'
p123
I417
sS'hundreds'
p124
I912
sS'bangkok'
p125
I3823
sS'reported'
p126
I172
sS'protection'
p127
I1300
sS'china'
p128
I190
sS'governing'
p129
I3248
sS'active'
p130
I4214
sS'path'
p131
I3689
sS'100'
p132
I668
sS'enron'
p133
I1957
sS'souness'
p134
I4848
sS'property'
p135
I1966
sS'daughter'
p136
I4792
sS'hunting'
p137
I3848
sS'forum'
p138
I3077
sS'auction'
p139
I1640
sS'items'
p140
I4139
sS'study'
p141
I723
sS'changed'
p142
I1873
sS'envoy'
p143
I4394
sS'completely'
p144
I4414
sS'reports'
p145
I393
sS'controversy'
p146
I2938
sS'itunes'
p147
I1632
sS'credit'
p148
I1161
sS'analysts'
p149
I738
sS'chrysler'
p150
I4520
sS'repair'
p151
I3742
sS'spin'
p152
I4852
sS'military'
p153
I270
sS'casino'
p154
I3073
sS'engineers'
p155
I2628
sS'changes'
p156
I1384
sS'midway'
p157
I4907
sS'diplomat'
p158
I4469
sS'criticism'
p159
I2445
sS'golden'
p160
I2902
sS'invasion'
p161
I2945
sS'secure'
p162
I1408
sS'campaign'
p163
I519
sS'straw'
p164
I4763
sS'touchdowns'
p165
I1364
sS'kmart'
p166
I3129
sS'replace'
p167
I1655
sS'brought'
p168
I1213
sS'celtics'
p169
I3732
sS'unix'
p170
I3614
sS'pound'
p171
I3160
sS'wars'
p172
I3845
sS'cassini'
p173
I2567
sS'actions'
p174
I4299
sS'total'
p175
I1223
sS'schilling'
p176
I2585
sS'unit'
p177
I812
sS'opponents'
p178
I2529
sS'plot'
p179
I2865
sS'sexual'
p180
I3299
sS'dna'
p181
I3590
sS'spoke'
p182
I4129
sS'would'
p183
I90
sS'army'
p184
I546
sS'compensation'
p185
I3315
sS'keith'
p186
I4615
sS'hospital'
p187
I993
sS'played'
p188
I1082
sS'arms'
p189
I1835
sS'1,000'
p190
I2125
sS'backing'
p191
I2980
sS'music'
p192
I251
sS'asset'
p193
I3633
sS'raids'
p194
I4494
sS'strike'
p195
I777
sS'indiana'
p196
I1992
sS'preview'
p197
I3905
sS'type'
p198
I3473
sS'until'
p199
I775
sS'swap'
p200
I4658
sS'hu'
p201
I4493
sS'supporters'
p202
I2023
sS'holy'
p203
I2169
sS'incumbent'
p204
I4376
sS'quickinfo'
p205
I275
sS'remarkable'
p206
I4812
sS'carriers'
p207
I3036
sS'yahoo'
p208
I861
sS'award'
p209
I1788
sS'hurt'
p210
I1639
sS'99'
p211
I3033
sS'phone'
p212
I314
sS'berlin'
p213
I2091
sS'championships'
p214
I1980
sS'tying'
p215
I4490
sS'prescription'
p216
I4004
sS'90'
p217
I2123
sS'hole'
p218
I2020
sS'hold'
p219
I837
sS'95'
p220
I3483
sS'squad'
p221
I2655
sS'tampa'
p222
I1933
sS'must'
p223
I836
sS'me'
p224
I2028
sS'separatist'
p225
I2873
sS'join'
p226
I1482
sS'room'
p227
I1474
sS'rights'
p228
I863
sS'1999'
p229
I3139
sS'yudhoyono'
p230
I4644
sS'mo'
p231
I4342
sS'work'
p232
I405
sS'gasoline'
p233
I2949
sS'worm'
p234
I2534
sS'movies'
p235
I1921
sS'mw'
p236
I1117
sS'rim'
p237
I4276
sS'era'
p238
I2132
sS'ms'
p239
I1142
sS'mr'
p240
I2263
sS'im'
p241
I4601
sS'jamal'
p242
I4492
sS'revenues'
p243
I3060
sS'my'
p244
I1235
sS'route'
p245
I3933
sS'shook'
p246
I3661
sS'estate'
p247
I3085
sS'give'
p248
I550
sS'india'
p249
I282
sS'lure'
p250
I4322
sS'ghraib'
p251
I4506
sS'currency'
p252
I1731
sS'foods'
p253
I2790
sS'caution'
p254
I4638
sS'want'
p255
I979
sS'seoul'
p256
I2082
sS'keep'
p257
I587
sS'attract'
p258
I4433
sS'rescue'
p259
I2608
sS'ceremony'
p260
I2595
sS'aging'
p261
I4795
sS'visited'
p262
I4518
sS'qcat'
p263
I2093
sS'end'
p264
I160
sS'recovery'
p265
I1560
sS'quot'
p266
I42
sS'provide'
p267
I891
sS'travel'
p268
I1212
sS'returning'
p269
I2549
sS'damage'
p270
I1516
sS'kabul'
p271
I1295
sS'how'
p272
I335
sS'hot'
p273
I1650
sS'accusations'
p274
I4546
sS'rookie'
p275
I1816
sS'interview'
p276
I1768
sS'widespread'
p277
I3096
sS'beach'
p278
I2266
sS'charging'
p279
I3937
sS'offshore'
p280
I4611
sS'gordon'
p281
I2558
sS'gaming'
p282
I2737
sS'regional'
p283
I1809
sS'description'
p284
I3086
sS'replacing'
p285
I3716
sS'after'
p286
I34
sS'confirmed'
p287
I949
sS'demanding'
p288
I2660
sS'alabama'
p289
I4885
sS'wrong'
p290
I2013
sS'halliburton'
p291
I3581
sS'lay'
p292
I2624
sS'involvement'
p293
I3788
sS'brands'
p294
I2818
sS'president'
p295
I79
sS'law'
p296
I770
sS'arch'
p297
I4945
sS'las'
p298
I2667
sS'stronghold'
p299
I3025
sS'purchase'
p300
I1681
sS'danny'
p301
I4153
sS'attempt'
p302
I916
sS'third'
p303
I112
sS'sets'
p304
I2361
sS'fewer'
p305
I3678
sS'amid'
p306
I672
sS'grant'
p307
I3920
sS'acknowledged'
p308
I3746
sS'headquarters'
p309
I2577
sS'greek'
p310
I1954
sS'maintain'
p311
I3442
sS'green'
p312
I841
sS'berlusconi'
p313
I4684
sS'enter'
p314
I2454
sS'fan'
p315
I2982
sS'democratic'
p316
I895
sS'athletes'
p317
I3410
sS'order'
p318
I958
sS'wind'
p319
I2689
sS'updates'
p320
I3702
sS'operations'
p321
I839
sS'helens'
p322
I3928
sS'decide'
p323
I2021
sS'office'
p324
I543
sS'telecom'
p325
I2204
sS'over'
p326
I41
sS'reforms'
p327
I3022
sS'encounter'
p328
I4349
sS'expects'
p329
I1279
sS'jerry'
p330
I4464
sS'cornerback'
p331
I4091
sS'suspend'
p332
I3424
sS'london'
p333
I210
sS'strengthening'
p334
I4903
sS'japan'
p335
I295
sS'owens'
p336
I4079
sS'nets'
p337
I3057
sS'mayor'
p338
I2864
sS'before'
p339
I161
sS'scoring'
p340
I1942
sS'veritas'
p341
I4474
sS'fullquote'
p342
I118
sS'fit'
p343
I3510
sS'personal'
p344
I756
sS'rebounds'
p345
I2188
sS'fix'
p346
I3050
sS'striking'
p347
I4217
sS','
p348
I4
sS'denver'
p349
I1818
sS'crew'
p350
I1830
sS'better'
p351
I593
sS'damascus'
p352
I4117
sS'production'
p353
I719
sS'voip'
p354
I3446
sS'400'
p355
I1566
sS'wales'
p356
I1987
sS'weeks'
p357
I350
sS'citigroup'
p358
I3048
sS'easier'
p359
I2661
sS'overcome'
p360
I3981
sS'split'
p361
I3271
sS'versus'
p362
I3666
sS'then'
p363
I790
sS'them'
p364
I212
sS'grace'
p365
I4867
sS'iowa'
p366
I3796
sS'combination'
p367
I4593
sS'similar'
p368
I2108
sS'safe'
p369
I2565
sS'finish'
p370
I1913
sS'sharapova'
p371
I3398
sS'break'
p372
I1273
sS'band'
p373
I2834
sS'girls'
p374
I4198
sS'hiring'
p375
I3576
sS'effects'
p376
I3003
sS'they'
p377
I64
sS'schools'
p378
I2387
sS'itanium'
p379
I4080
sS'strategic'
p380
I2663
sS'rental'
p381
I3573
sS'silver'
p382
I3087
sS'bank'
p383
I224
sS'netherlands'
p384
I2639
sS'alex'
p385
I1774
sS'inventory'
p386
I4164
sS'debut'
p387
I1583
sS'arrested'
p388
I879
sS'l'
p389
I1528
sS'detroit'
p390
I925
sS'victories'
p391
I3163
sS'lockout'
p392
I3143
sS'victory'
p393
I156
sS'each'
p394
I762
sS'went'
p395
I832
sS'side'
p396
I821
sS'carlos'
p397
I1919
sS'mean'
p398
I2770
sS'manmohan'
p399
I2931
sS'lifted'
p400
I2372
sS'financial'
p401
I365
sS'telescope'
p402
I3168
sS'initiative'
p403
I2956
sS'meets'
p404
I4729
sS'knockout'
p405
I4801
sS'series'
p406
I222
sS'train'
p407
I2225
sS'crimes'
p408
I2262
sS'husband'
p409
I4196
sS'solution'
p410
I2330
sS'carry'
p411
I2236
sS'milan'
p412
I2222
sS'indianapolis'
p413
I1783
sS'trading'
p414
I613
sS'rovers'
p415
I3380
sS'navy'
p416
I2784
sS'temporary'
p417
I3531
sS'dawn'
p418
I3862
sS'saturday'
p419
I106
sS'brings'
p420
I4928
sS'overcame'
p421
I3992
sS'network'
p422
I197
sS'driving'
p423
I2349
sS'videotape'
p424
I4600
sS'kuwait'
p425
I4237
sS'detainees'
p426
I4689
sS'passengers'
p427
I2455
sS'crucial'
p428
I1848
sS'tomorrow'
p429
I1580
sS'content'
p430
I1317
sS're'
p431
I823
sS'laid'
p432
I3726
sS'daniel'
p433
I3592
sS'arrests'
p434
I4889
sS'banning'
p435
I4858
sS'reader'
p436
I4313
sS'medicine'
p437
I4260
sS'got'
p438
I658
sS'newly'
p439
I2000
sS'size'
p440
I773
sS'venezuela'
p441
I2776
sS'independence'
p442
I3650
sS'foundation'
p443
I2446
sS'arizona'
p444
I1579
sS'turning'
p445
I1932
sS'outsourcing'
p446
I3247
sS'scottish'
p447
I3640
sS'resume'
p448
I2164
sS'threatened'
p449
I1108
sS'little'
p450
I515
sS'free'
p451
I371
sS'standard'
p452
I1180
sS'shawn'
p453
I3770
sS'ancient'
p454
I2977
sS'struggle'
p455
I2966
sS'boosting'
p456
I2886
sS'k'
p457
I3579
sS'wanted'
p458
I1188
sS'repeat'
p459
I4693
sS'juan'
p460
I3763
sS'mvp'
p461
I4640
sS'baseman'
p462
I3321
sS'volatile'
p463
I4115
sS'recovering'
p464
I4303
sS'created'
p465
I1738
sS'starts'
p466
I2758
sS'refugee'
p467
I2334
sS'privacy'
p468
I4090
sS'kashmir'
p469
I1622
sS'days'
p470
I281
sS'silicon'
p471
I2768
sS'shipped'
p472
I4791
sS'isn'
p473
I2435
sS'atp'
p474
I4682
sS'unknown'
p475
I4331
sS'kingdom'
p476
I4106
sS'moving'
p477
I1467
sS'scheme'
p478
I4573
sS'onto'
p479
I2373
sS'ncaa'
p480
I3236
sS"'d"
p481
I4259
sS'stewart'
p482
I1611
sS'already'
p483
I685
sS'features'
p484
I1305
sS'economists'
p485
I3686
sS'steroids'
p486
I4050
sS'sentence'
p487
I3198
sS'nhl'
p488
I1685
sS'hellip'
p489
I4760
sS'primary'
p490
I4661
sS'hearing'
p491
I2172
sS'hamstring'
p492
I3752
sS'individuals'
p493
I4595
sS'elena'
p494
I4500
sS'adopted'
p495
I3873
sS'another'
p496
I225
sS'wasn'
p497
I3007
sS'electronic'
p498
I1191
sS'wing'
p499
I3554
sS'mercury'
p500
I4688
sS'agriculture'
p501
I4785
sS'basketball'
p502
I899
sS'service'
p503
I169
sS'top'
p504
I145
sS'amsterdam'
p505
I2891
sS'approximately'
p506
I4694
sS'blackberry'
p507
I3335
sS'needed'
p508
I1303
sS'newsfactor'
p509
I1988
sS'rates'
p510
I715
sS'too'
p511
I684
sS'tom'
p512
I1425
sS'pioneer'
p513
I4678
sS'hollywood'
p514
I1391
sS'john'
p515
I242
sS'bitter'
p516
I2786
sS'genesis'
p517
I3356
sS'hewitt'
p518
I2547
sS'urban'
p519
I3825
sS'murder'
p520
I1939
sS'collapse'
p521
I2619
sS'geneva'
p522
I4332
sS'tool'
p523
I1714
sS'serve'
p524
I2693
sS'took'
p525
I374
sS'rejected'
p526
I1181
sS'direct'
p527
I1762
sS'wrapped'
p528
I4798
sS'western'
p529
I716
sS'automotive'
p530
I4208
sS'shortly'
p531
I4016
sS'eastman'
p532
I4361
sS'toronto'
p533
I643
sS'distance'
p534
I2771
sS'lenovo'
p535
I4416
sS'td'
p536
I4754
sS'target'
p537
I198
sS'showed'
p538
I591
sS'hike'
p539
I3641
sS'older'
p540
I3536
sS'tree'
p541
I4673
sS'likely'
p542
I650
sS'nations'
p543
I357
sS'project'
p544
I1112
sS'matter'
p545
I1752
sS'filmmaker'
p546
I4703
sS'merck'
p547
I1968
sS'speaking'
p548
I3527
sS'charlie'
p549
I4182
sS'greenspan'
p550
I2453
sS'10th'
p551
I3119
sS'powers'
p552
I3268
sS'acquisition'
p553
I1206
sS'bridge'
p554
I3067
sS'fashion'
p555
I3634
sS'sees'
p556
I3158
sS'palace'
p557
I3172
sS'nvidia'
p558
I4755
sS'ran'
p559
I1359
sS'boston'
p560
I328
sS'aapl'
p561
I4373
sS'modern'
p562
I3231
sS'mind'
p563
I2785
sS'mine'
p564
I2589
sS'kyle'
p565
I4528
sS'talking'
p566
I2621
sS'seed'
p567
I2141
sS'simultaneously'
p568
I4728
sS'portal'
p569
I4884
sS'seen'
p570
I953
sS'seem'
p571
I2695
sS'seek'
p572
I2072
sS'tells'
p573
I4659
sS'alive'
p574
I2669
sS'ray'
p575
I2106
sS'forced'
p576
I1137
sS'abroad'
p577
I4074
sS'strength'
p578
I1853
sS'mostly'
p579
I2840
sS'laden'
p580
I2393
sS'responsible'
p581
I2633
sS'snow'
p582
I3031
sS'oriented'
p583
I4712
sS'sound'
p584
I2777
sS'rome'
p585
I2552
sS'derek'
p586
I4043
sS'luxury'
p587
I3107
sS'forces'
p588
I391
sS'cycling'
p589
I4978
sS'kremlin'
p590
I3373
sS'quarterback'
p591
I761
sS'forbes'
p592
I3435
sS'shipments'
p593
I3004
sS'blue'
p594
I880
sS'exactly'
p595
I3216
sS'juventus'
p596
I3923
sS'though'
p597
I981
sS'bruce'
p598
I3753
sS'outcome'
p599
I3808
sS'sue'
p600
I4128
sS'automaker'
p601
I3491
sS'landmark'
p602
I2662
sS'regular'
p603
I1890
sS'germany'
p604
I688
sS'letter'
p605
I3101
sS'entry'
p606
I2944
sS'phase'
p607
I3617
sS'competing'
p608
I3469
sS'materials'
p609
I3012
sS'jean'
p610
I2618
sS'explosives'
p611
I2458
sS'maria'
p612
I2654
sS'zealand'
p613
I1214
sS'singer'
p614
I4851
sS'crackdown'
p615
I3605
sS'don'
p616
I1438
sS'richard'
p617
I1595
sS'antitrust'
p618
I1886
sS'medical'
p619
I1019
sS'camp'
p620
I1167
sS'm'
p621
I677
sS'investments'
p622
I3204
sS'competitors'
p623
I2735
sS'points'
p624
I322
sS'tech'
p625
I789
sS'enterprise'
p626
I1017
sS'voting'
p627
I1594
sS'consumer'
p628
I490
sS'dow'
p629
I1132
sS'came'
p630
I653
sS'reserve'
p631
I639
sS'saying'
p632
I499
sS'selected'
p633
I4392
sS'bomb'
p634
I565
sS'pope'
p635
I4762
sS'ambassador'
p636
I3791
sS'lewis'
p637
I2536
sS'meetings'
p638
I2833
sS'probe'
p639
I1537
sS'ending'
p640
I1014
sS'prix'
p641
I1268
sS'attempts'
p642
I2851
sS'qaeda'
p643
I1448
sS'radio'
p644
I742
sS'solutions'
p645
I2753
sS'stepping'
p646
I4118
sS'earth'
p647
I1012
sS'arrive'
p648
I4933
sS'refusing'
p649
I4732
sS'availability'
p650
I3703
sS'appealed'
p651
I3740
sS'orleans'
p652
I2450
sS'judges'
p653
I3964
sS'finally'
p654
I844
sS'just'
p655
I170
sS'representing'
p656
I3363
sS'delays'
p657
I3636
sS'unemployment'
p658
I3176
sS'minnesota'
p659
I1072
sS'tries'
p660
I3186
sS'bush'
p661
I188
sS'rick'
p662
I4157
sS'rich'
p663
I1527
sS'networking'
p664
I2396
sS'announce'
p665
I1472
sS'titans'
p666
I3296
sS'oct'
p667
I589
sS'berth'
p668
I4292
sS'alexander'
p669
I3824
sS'do'
p670
I325
sS'exports'
p671
I1926
sS'fossil'
p672
I4498
sS'wide'
p673
I1189
sS'de'
p674
I1209
sS'stop'
p675
I808
sS'television'
p676
I610
sS'cardinals'
p677
I1377
sS'coast'
p678
I831
sS'criticized'
p679
I3479
sS'amazon'
p680
I2374
sS'cat'
p681
I4612
sS'spirit'
p682
I3430
sS'new'
p683
I27
sS'report'
p684
I230
sS'haiti'
p685
I2080
sS'saturn'
p686
I2388
sS'dr'
p687
I3304
sS'ds'
p688
I3713
sS'peyton'
p689
I3899
sS'hall'
p690
I2217
sS'runs'
p691
I1010
sS'bar'
p692
I2824
sS'emc'
p693
I4012
sS'countries'
p694
I703
sS'optimistic'
p695
I3291
sS'officially'
p696
I2159
sS'animation'
p697
I4370
sS'bay'
p698
I804
sS'twice'
p699
I1593
sS'bad'
p700
I1249
sS'seeks'
p701
I3403
sS'shots'
p702
I2610
sS'rival'
p703
I438
sS'insurgents'
p704
I1134
sS'identify'
p705
I4631
sS'counted'
p706
I4570
sS'steam'
p707
I4447
sS'secretary'
p708
I557
sS'headed'
p709
I1828
sS'playstation'
p710
I2928
sS'blew'
p711
I2877
sS'disaster'
p712
I2250
sS'fair'
p713
I2672
sS'testing'
p714
I1732
sS'hasn'
p715
I4489
sS'unexpectedly'
p716
I3113
sS'checks'
p717
I4104
sS'decided'
p718
I941
sS'result'
p719
I1228
sS'mahmoud'
p720
I4511
sS'discussions'
p721
I4486
sS'christian'
p722
I3729
sS'resigned'
p723
I1956
sS'frequency'
p724
I4958
sS'alternative'
p725
I3019
sS'best'
p726
I442
sS'subject'
p727
I2933
sS'brazil'
p728
I1389
sS'00'
p729
I4880
sS'said'
p730
I22
sS'capacity'
p731
I2199
sS'04'
p732
I3262
sS'05'
p733
I3180
sS'away'
p734
I529
sS'reporter'
p735
I3975
sS'patients'
p736
I2287
sS'injuries'
p737
I2507
sS'future'
p738
I558
sS'olympics'
p739
I826
sS'cooperation'
p740
I2897
sS'example'
p741
I4637
sS'drawn'
p742
I4245
sS'92'
p743
I3828
sS'approach'
p744
I2131
sS'berkeley'
p745
I4645
sS'discovery'
p746
I2925
sS'profitable'
p747
I4647
sS'we'
p748
I509
sS'never'
p749
I877
sS'terms'
p750
I1504
sS'nationwide'
p751
I1973
sS'adding'
p752
I1730
sS'wo'
p753
I2427
sS'ask'
p754
I2049
sS'weak'
p755
I1820
sS'however'
p756
I2405
sS'wi'
p757
I2381
sS'boss'
p758
I1543
sS'southeast'
p759
I2509
sS'retirement'
p760
I1889
sS'montgomerie'
p761
I4395
sS'drew'
p762
I2401
sS'recent'
p763
I463
sS'clues'
p764
I4448
sS'landslides'
p765
I4789
sS'news'
p766
I142
sS'666666'
p767
I1244
sS'debt'
p768
I1125
sS'holds'
p769
I3120
sS'arthritis'
p770
I2614
sS'improve'
p771
I1484
sS'faced'
p772
I2142
sS'received'
p773
I992
sS'protect'
p774
I1489
sS'accident'
p775
I3288
sS'expos'
p776
I2137
sS'met'
p777
I1176
sS'country'
p778
I158
sS'ill'
p779
I2668
sS'wounding'
p780
I1485
sS'heating'
p781
I1674
sS'against'
p782
I70
sS'players'
p783
I302
sS'negative'
p784
I3939
sS'erupted'
p785
I3712
sS'games'
p786
I241
sS'planned'
p787
I897
sS'faces'
p788
I1666
sS'studio'
p789
I2992
sS'com'
p790
I104
sS'asked'
p791
I928
sS'pursuit'
p792
I4559
sS'pre'
p793
I1854
sS'standings'
p794
I3642
sS'tough'
p795
I1602
sS'appeared'
p796
I1313
sS'royal'
p797
I1637
sS'civilians'
p798
I2426
sS'peacekeepers'
p799
I3478
sS'offerings'
p800
I3030
sS'tons'
p801
I4987
sS'written'
p802
I3985
sS'viruses'
p803
I2444
sS'rockies'
p804
I4589
sS'basque'
p805
I4816
sS'tony'
p806
I846
sS'250'
p807
I3054
sS'resignation'
p808
I2616
sS'telecommunications'
p809
I1600
sS'conference'
p810
I466
sS'iraq'
p811
I103
sS'targeting'
p812
I2682
sS'jobless'
p813
I3950
sS'engines'
p814
I3015
sS'rangers'
p815
I1881
sS'union'
p816
I283
sS'condemned'
p817
I3997
sS'claiming'
p818
I2076
sS'three'
p819
I78
sS'been'
p820
I80
sS'quickly'
p821
I1800
sS'hamilton'
p822
I3509
sS'commission'
p823
I415
sS'beer'
p824
I4603
sS'much'
p825
I318
sS'interest'
p826
I547
sS'basic'
p827
I4098
sS'expected'
p828
I187
sS'entered'
p829
I1860
sS'dozens'
p830
I1883
sS'abuja'
p831
I4036
sS'threw'
p832
I1257
sS'website'
p833
I2230
sS'life'
p834
I498
sS'pressed'
p835
I4588
sS'families'
p836
I3103
sS'homeland'
p837
I2941
sS'eastern'
p838
I1201
sS'drugs'
p839
I1097
sS'ownership'
p840
I4391
sS'republicans'
p841
I2967
sS'worker'
p842
I2781
sS'darfur'
p843
I687
sS'enterprises'
p844
I3747
sS'sears'
p845
I3092
sS'dave'
p846
I4031
sS'lift'
p847
I1798
sS'chile'
p848
I3020
sS'child'
p849
I2389
sS'catch'
p850
I2627
sS'aviation'
p851
I3197
sS'worked'
p852
I3106
sS'slowdown'
p853
I3347
sS'violations'
p854
I3815
sS'battling'
p855
I4206
sS'commerce'
p856
I1688
sS'east'
p857
I632
sS'publicly'
p858
I3765
sS'launches'
p859
I4229
sS'neal'
p860
I4436
sS'teenager'
p861
I3856
sS'newest'
p862
I3571
sS'air'
p863
I363
sS'aim'
p864
I3348
sS'near'
p865
I386
sS'conspiracy'
p866
I3389
sS'ayad'
p867
I4575
sS'leaves'
p868
I3875
sS'appeals'
p869
I2255
sS'aid'
p870
I938
sS'ballmer'
p871
I3940
sS'voice'
p872
I1837
sS'davenport'
p873
I4132
sS'employees'
p874
I930
sS'launched'
p875
I531
sS'unlikely'
p876
I2481
sS'seven'
p877
I358
sS'climbed'
p878
I2424
sS'universe'
p879
I4842
sS'mexico'
p880
I1353
sS'ip'
p881
I2727
sS'is'
p882
I21
sS'it'
p883
I23
sS'defeated'
p884
I2122
sS'expenses'
p885
I3944
sS'ii'
p886
I2635
sS'player'
p887
I435
sS'experts'
p888
I1032
sS'newratings'
p889
I3367
sS'in'
p890
I8
sS'victims'
p891
I1831
sS'seattle'
p892
I805
sS'id'
p893
I3088
sS'if'
p894
I152
sS'hong'
p895
I1345
sS'sap'
p896
I3719
sS'prior'
p897
I3771
sS'patent'
p898
I2061
sS'things'
p899
I1396
sS'make'
p900
I228
sS'format'
p901
I1916
sS'amount'
p902
I2649
sS'clearly'
p903
I4705
sS'downtown'
p904
I4932
sS'dean'
p905
I4818
sS'complex'
p906
I2993
sS'potentially'
p907
I2498
sS'marathon'
p908
I2223
sS'dvds'
p909
I4497
sS'several'
p910
I445
sS'showing'
p911
I1367
sS'european'
p912
I162
sS'independent'
p913
I1711
sS'satellite'
p914
I1101
sS'raid'
p915
I2942
sS'saddam'
p916
I1725
sS'sacramento'
p917
I4215
sS'pick'
p918
I2174
sS'workforce'
p919
I4032
sS'rain'
p920
I1581
sS'hand'
p921
I1114
sS'effectively'
p922
I4201
sS'norwegian'
p923
I4406
sS'southeastern'
p924
I3983
sS'producers'
p925
I3027
sS'kim'
p926
I3044
sS'constitution'
p927
I4343
sS'insisted'
p928
I2317
sS'opportunity'
p929
I2027
sS'blamed'
p930
I2910
sS'understand'
p931
I4252
sS'intention'
p932
I4874
sS'dhaka'
p933
I4304
sS'delegates'
p934
I4553
sS'postponed'
p935
I3680
sS'kept'
p936
I1215
sS'qaida'
p937
I2874
sS'programs'
p938
I1356
sS'settled'
p939
I3175
sS'failing'
p940
I2344
sS'suffering'
p941
I2530
sS'ocean'
p942
I2907
sS'netflix'
p943
I4726
sS'khartoum'
p944
I3070
sS'practices'
p945
I2479
sS'greatest'
p946
I2710
sS'detained'
p947
I3423
sS'mother'
p948
I3480
sS'claims'
p949
I867
sS'the'
p950
I3
sS'800'
p951
I3330
sS'corporate'
p952
I735
sS'33'
p953
I2231
sS'left'
p954
I250
sS'spurred'
p955
I4724
sS'protocol'
p956
I2269
sS'aerospace'
p957
I3871
sS'proposed'
p958
I1086
sS'yen'
p959
I1429
sS'athletic'
p960
I3210
sS'photo'
p961
I2054
sS'laptop'
p962
I4009
sS'expanding'
p963
I2535
sS'consortium'
p964
I3130
sS'everton'
p965
I3646
sS'fighters'
p966
I2488
sS'birmingham'
p967
I3737
sS'thanks'
p968
I1613
sS'human'
p969
I744
sS'indicted'
p970
I4554
sS'yes'
p971
I4950
sS'yet'
p972
I690
sS'previous'
p973
I1292
sS'humanitarian'
p974
I3516
sS'jose'
p975
I1159
sS'buyers'
p976
I3562
sS'eli'
p977
I3668
sS'hal'
p978
I4293
sS'hills'
p979
I1936
sS'candidate'
p980
I1298
sS'endangered'
p981
I3738
sS'zook'
p982
I4886
sS'ease'
p983
I2473
sS'assassination'
p984
I3846
sS'had'
p985
I82
sS'spread'
p986
I2570
sS'board'
p987
I548
sS'easy'
p988
I1589
sS'prison'
p989
I1069
sS'els'
p990
I3381
sS'save'
p991
I1307
sS'hat'
p992
I2014
sS'gave'
p993
I722
sS'fallujah'
p994
I1270
sS'preseason'
p995
I2531
sS'breaks'
p996
I4330
sS'rapidly'
p997
I3615
sS'possible'
p998
I669
sS'arab'
p999
I1483
sS'possibly'
p1000
I2338
sS'lcd'
p1001
I4097
sS'survival'
p1002
I4853
sS'injuring'
p1003
I2395
sS'birth'
p1004
I4192
sS'newcastle'
p1005
I2278
sS'judge'
p1006
I670
sS'cape'
p1007
I3931
sS'shadow'
p1008
I4431
sS'hamas'
p1009
I1971
sS'korean'
p1010
I1410
sS'advanced'
p1011
I1028
sS'apart'
p1012
I3437
sS'shoulder'
p1013
I3045
sS'county'
p1014
I2026
sS'insurgent'
p1015
I2643
sS'beirut'
p1016
I4870
sS'58'
p1017
I4172
sS'gift'
p1018
I4257
sS'bobby'
p1019
I2430
sS'55'
p1020
I1878
sS'54'
p1021
I2456
sS'cool'
p1022
I2857
sS'hunt'
p1023
I3205
sS'orlando'
p1024
I2414
sS'50'
p1025
I603
sS'53'
p1026
I2679
sS'52'
p1027
I2808
sS'securities'
p1028
I875
sS'henman'
p1029
I3468
sS'steps'
p1030
I2596
sS'officer'
p1031
I917
sS'islam'
p1032
I4872
sS'night'
p1033
I109
sS'security'
p1034
I117
sS'matchup'
p1035
I4402
sS'radcliffe'
p1036
I4015
sS'signal'
p1037
I3600
sS'towards'
p1038
I2489
sS'retreat'
p1039
I4536
sS'jazeera'
p1040
I3207
sS'www'
p1041
I215
sS'right'
p1042
I390
sS'old'
p1043
I238
sS'deal'
p1044
I220
sS'people'
p1045
I96
sS'czech'
p1046
I3333
sS'51'
p1047
I2555
sS'successfully'
p1048
I2664
sS'crown'
p1049
I3466
sS'santiago'
p1050
I3998
sS'dead'
p1051
I797
sS'born'
p1052
I2537
sS'donald'
p1053
I1997
sS'meters'
p1054
I2954
sS'election'
p1055
I253
sS'industries'
p1056
I2636
sS'pain'
p1057
I3071
sS'xbox'
p1058
I3114
sS'library'
p1059
I3855
sS'specific'
p1060
I4165
sS'guinea'
p1061
I3281
sS'combat'
p1062
I2712
sS'for'
p1063
I11
sS'bottom'
p1064
I2460
sS'icc'
p1065
I3735
sS'establish'
p1066
I4605
sS'deploy'
p1067
I3781
sS'connecticut'
p1068
I3115
sS'comments'
p1069
I2175
sS'everything'
p1070
I2354
sS'queen'
p1071
I4811
sS'asking'
p1072
I3408
sS'musharraf'
p1073
I2071
sS'denied'
p1074
I1757
sS'cnn'
p1075
I2115
sS'offices'
p1076
I2696
sS'beating'
p1077
I1150
sS'christmas'
p1078
I1473
sS'drink'
p1079
I4609
sS'pyongyang'
p1080
I3840
sS'core'
p1081
I1767
sS'columbus'
p1082
I4508
sS'annan'
p1083
I2305
sS'marketing'
p1084
I1422
sS'payment'
p1085
I3121
sS'agassi'
p1086
I3317
sS'popular'
p1087
I755
sS'restructuring'
p1088
I2365
sS'plc'
p1089
I1362
sS'defensive'
p1090
I1620
sS'losing'
p1091
I1095
sS'brokerage'
p1092
I2725
sS'post'
p1093
I660
sS'manufacturing'
p1094
I1515
sS'super'
p1095
I1862
sS'extreme'
p1096
I4569
sS'gartner'
p1097
I3203
sS'microsystems'
p1098
I1493
sS'trophy'
p1099
I1556
sS'aboard'
p1100
I2903
sS'roster'
p1101
I4059
sS'grid'
p1102
I3308
sS'install'
p1103
I4422
sS'attacks'
p1104
I483
sS'dollars'
p1105
I913
sS'months'
p1106
I276
sS'beta'
p1107
I2311
sS'o'
p1108
I271
sS'nairobi'
p1109
I4722
sS'magazine'
p1110
I1796
sS'plus'
p1111
I1588
sS'afternoon'
p1112
I1236
sS'islands'
p1113
I2878
sS'efforts'
p1114
I724
sS'palestinians'
p1115
I1174
sS'slightly'
p1116
I1253
sS'jacques'
p1117
I2170
sS'diamondbacks'
p1118
I3734
sS'raised'
p1119
I817
sS'indians'
p1120
I3223
sS'managers'
p1121
I1808
sS'rallied'
p1122
I2070
sS'presence'
p1123
I2759
sS'civil'
p1124
I1451
sS'wmt'
p1125
I3409
sS'prisoners'
p1126
I2191
sS'craft'
p1127
I4936
sS'attorney'
p1128
I1258
sS'intellectual'
p1129
I4199
sS'son'
p1130
I2127
sS'down'
p1131
I178
sS'freshman'
p1132
I3967
sS'explain'
p1133
I3867
sS'capped'
p1134
I4470
sS'sox'
p1135
I398
sS'flaws'
p1136
I4509
sS'reducing'
p1137
I4099
sS'rounds'
p1138
I3269
sS'wal'
p1139
I1404
sS'crowd'
p1140
I1795
sS'chargers'
p1141
I4180
sS'support'
p1142
I465
sS'initial'
p1143
I1135
sS'legislation'
p1144
I2306
sS'depot'
p1145
I4174
sS'fight'
p1146
I806
sS'virgin'
p1147
I2190
sS'anderson'
p1148
I4479
sS'fought'
p1149
I2524
sS'editor'
p1150
I3323
sS'way'
p1151
I258
sS'call'
p1152
I858
sS'henry'
p1153
I3200
sS'was'
p1154
I32
sS'war'
p1155
I288
sS'launching'
p1156
I2134
sS'happy'
p1157
I3122
sS'lowest'
p1158
I2719
sS'head'
p1159
I346
sS'medium'
p1160
I3761
sS'battery'
p1161
I4250
sS'form'
p1162
I1315
sS'offer'
p1163
I456
sS'attempted'
p1164
I4613
sS'becoming'
p1165
I1601
sS'paypal'
p1166
I4471
sS'landing'
p1167
I3006
sS'ford'
p1168
I1534
sS'wireless'
p1169
I306
sS'failure'
p1170
I2437
sS'heat'
p1171
I1965
sS'hear'
p1172
I2587
sS'lows'
p1173
I2413
sS'solar'
p1174
I2459
sS'sustained'
p1175
I3951
sS'glazer'
p1176
I3794
sS'stand'
p1177
I1524
sS'true'
p1178
I3108
sS'analyst'
p1179
I2039
sS'fort'
p1180
I3757
sS'branded'
p1181
I4938
sS'happen'
p1182
I3866
sS'braves'
p1183
I2300
sS'harmony'
p1184
I3311
sS'inside'
p1185
I1570
sS'bids'
p1186
I3497
sS'clubs'
p1187
I4411
sS'devices'
p1188
I782
sS'tell'
p1189
I2586
sS'crystal'
p1190
I3699
sS'complaint'
p1191
I4265
sS'maoist'
p1192
I4356
sS'planets'
p1193
I4234
sS'reform'
p1194
I2723
sS'stages'
p1195
I4616
sS'<unk>'
p1196
I1
sS'151'
p1197
I711
sS'passenger'
p1198
I2282
sS'promises'
p1199
I2892
sS'phil'
p1200
I3187
sS'proved'
p1201
I3109
sS'classic'
p1202
I1310
sS'stronger'
p1203
I2065
sS'tournament'
p1204
I950
sS'twenty'
p1205
I4668
sS'flaw'
p1206
I3190
sS'overhaul'
p1207
I3457
sS'evidence'
p1208
I1130
sS"''"
p1209
I73
sS'promised'
p1210
I1918
sS'telecoms'
p1211
I4029
sS'request'
p1212
I2130
sS'accounting'
p1213
I1076
sS'ship'
p1214
I2285
sS'hamm'
p1215
I2754
sS'check'
p1216
I1625
sS'negotiations'
p1217
I1276
sS'regime'
p1218
I3651
sS'palestinian'
p1219
I305
sS'marking'
p1220
I3375
sS'nl'
p1221
I2051
sS'relay'
p1222
I4073
sS'no'
p1223
I99
sS'agreeing'
p1224
I4002
sS'cos'
p1225
I3245
sS'stake'
p1226
I977
sS'when'
p1227
I87
sS'handed'
p1228
I1677
sS'reality'
p1229
I3352
sS'negotiators'
p1230
I3860
sS'tim'
p1231
I1431
sS'802'
p1232
I4949
sS'setting'
p1233
I1547
sS'winning'
p1234
I538
sS'holding'
p1235
I965
sS'digital'
p1236
I481
sS'test'
p1237
I333
sS'tie'
p1238
I1893
sS'discount'
p1239
I3093
sS'developers'
p1240
I2443
sS'nt'
p1241
I4790
sS'operators'
p1242
I3097
sS'scored'
p1243
I485
sS'picture'
p1244
I2055
sS'cleric'
p1245
I1275
sS'exporter'
p1246
I4103
sS"'s"
p1247
I25
sS'brothers'
p1248
I3690
sS'phoenix'
p1249
I2813
sS'models'
p1250
I2554
sS'surprise'
p1251
I1576
sS'football'
p1252
I359
sS'update'
p1253
I1283
sS'alitalia'
p1254
I3831
sS'brief'
p1255
I3876
sS'fell'
p1256
I379
sS'restore'
p1257
I3353
sS'genocide'
p1258
I4166
sS'scores'
p1259
I2319
sS'authorities'
p1260
I728
sS"'m"
p1261
I4918
sS'weekend'
p1262
I555
sS'tottenham'
p1263
I4226
sS'died'
p1264
I673
sS'jones'
p1265
I771
sS'warn'
p1266
I4442
sS'longer'
p1267
I1329
sS'australians'
p1268
I4954
sS'ryder'
p1269
I1185
sS'together'
p1270
I1340
sS'shrugged'
p1271
I4868
sS'loyal'
p1272
I4347
sS'vietnam'
p1273
I2705
sS'time'
p1274
I89
sS'push'
p1275
I1152
sS'serious'
p1276
I1449
sS'balance'
p1277
I4120
sS'lineup'
p1278
I2517
sS'dust'
p1279
I4558
sS'homered'
p1280
I2870
sS'profits'
p1281
I795
sS'songs'
p1282
I2227
sS'coach'
p1283
I243
sS'cincinnati'
p1284
I1948
sS'lleyton'
p1285
I2838
sS'chain'
p1286
I1230
sS'fox'
p1287
I3275
sS'global'
p1288
I344
sS'focus'
p1289
I1063
sS'integration'
p1290
I3777
sS'leads'
p1291
I3669
sS'roy'
p1292
I3857
sS'manager'
p1293
I491
sS'mile'
p1294
I3743
sS'marion'
p1295
I3574
sS'ice'
p1296
I2436
sS'battle'
p1297
I667
sS'playoffs'
p1298
I2632
sS'bomber'
p1299
I2720
sS'93'
p1300
I4597
sS'row'
p1301
I1513
sS'certainly'
p1302
I3607
sS'suicide'
p1303
I1008
sS'william'
p1304
I3620
sS'moqtada'
p1305
I4185
sS'zone'
p1306
I1660
sS'casualties'
p1307
I4440
sS'flash'
p1308
I2284
sS'father'
p1309
I2747
sS'pierce'
p1310
I4871
sS'94'
p1311
I3976
sS'environment'
p1312
I2556
sS'iraqi'
p1313
I263
sS'charge'
p1314
I1035
sS'electricity'
p1315
I3626
sS'text'
p1316
I3402
sS'terror'
p1317
I1198
sS'suffered'
p1318
I1544
sS'96'
p1319
I4240
sS'aspx'
p1320
I274
sS'southwest'
p1321
I4230
sS'division'
p1322
I679
sS'supported'
p1323
I4140
sS'string'
p1324
I2831
sS'advantage'
p1325
I2094
sS'md'
p1326
I4750
sS'billionaire'
p1327
I3602
sS'ibrahim'
p1328
I4541
sS'none'
p1329
I4281
sS'choice'
p1330
I2368
sS'vegas'
p1331
I2741
sS'lynch'
p1332
I3790
sS'tanks'
p1333
I4219
sS'word'
p1334
I1996
sS'trouble'
p1335
I2274
sS'blast'
p1336
I1832
sS'minute'
p1337
I1455
sS'governments'
p1338
I2275
sS'hour'
p1339
I1457
sS'bigley'
p1340
I2379
sS'level'
p1341
I854
sS'did'
p1342
I469
sS'12th'
p1343
I3512
sS'philippines'
p1344
I2279
sS'1996'
p1345
I4306
sS'proposals'
p1346
I3682
sS'brother'
p1347
I2896
sS'standards'
p1348
I1912
sS'leave'
p1349
I1118
sS'p'
p1350
I287
sS'settle'
p1351
I1278
sS'team'
p1352
I121
sS'quick'
p1353
I3000
sS'speculation'
p1354
I1871
sS'round'
p1355
I312
sS'greenhouse'
p1356
I4363
sS'prevent'
p1357
I2196
sS'olympic'
p1358
I317
sS'unexpected'
p1359
I3052
sS'says'
p1360
I147
sS'detonated'
p1361
I4246
sS'findings'
p1362
I4974
sS'tougher'
p1363
I4745
sS'trend'
p1364
I3068
sS'plunged'
p1365
I3558
sS'nortel'
p1366
I2862
sS'sign'
p1367
I962
sS'colin'
p1368
I1464
sS'cost'
p1369
I606
sS'portfolio'
p1370
I3545
sS'semifinals'
p1371
I2751
sS'targets'
p1372
I2209
sS'drinks'
p1373
I4548
sS'cbc'
p1374
I2711
sS'afghanistan'
p1375
I699
sS'ivory'
p1376
I1974
sS'appear'
p1377
I2298
sS'church'
p1378
I3459
sS'tyler'
p1379
I4687
sS'celebrated'
p1380
I3769
sS'locker'
p1381
I4458
sS'shares'
p1382
I252
sS'questioned'
p1383
I3921
sS'current'
p1384
I914
sS'suspect'
p1385
I3490
sS'goes'
p1386
I2283
sS'brawl'
p1387
I3301
sS'international'
p1388
I133
sS'falling'
p1389
I1545
sS'appeal'
p1390
I1535
sS'boost'
p1391
I909
sS'filled'
p1392
I3470
sS'junk'
p1393
I4243
sS'supporting'
p1394
I3656
sS'processing'
p1395
I3246
sS'explosion'
p1396
I1284
sS'slower'
p1397
I4020
sS'heavily'
p1398
I3177
sS'funeral'
p1399
I4929
sS'muslim'
p1400
I923
sS'french'
p1401
I464
sS'agreement'
p1402
I460
sS'water'
p1403
I1050
sS'abandon'
p1404
I4481
sS'upgrade'
p1405
I2083
sS'baseball'
p1406
I630
sS'redskins'
p1407
I2370
sS'groups'
p1408
I1026
sS'address'
p1409
I2375
sS'alone'
p1410
I3266
sS'grabbed'
p1411
I3635
sS'along'
p1412
I1096
sS'stem'
p1413
I2299
sS'appears'
p1414
I1575
sS'change'
p1415
I751
sS'wait'
p1416
I2403
sS'box'
p1417
I2845
sS'sending'
p1418
I1218
sS'allies'
p1419
I3174
sS'canadian'
p1420
I537
sS'institute'
p1421
I2581
sS'shift'
p1422
I2472
sS'mumbai'
p1423
I3827
sS'guilty'
p1424
I1558
sS'lakers'
p1425
I3799
sS'grenade'
p1426
I4296
sS'membership'
p1427
I3118
sS'trial'
p1428
I675
sS'chemical'
p1429
I3455
sS'lindsay'
p1430
I4114
sS'usually'
p1431
I3885
sS'corp'
p1432
I85
sS'bob'
p1433
I2442
sS'studies'
p1434
I4782
sS'rafael'
p1435
I3694
sS'montreal'
p1436
I1617
sS'engineer'
p1437
I3612
sS'emerge'
p1438
I4003
sS'teenage'
p1439
I4695
sS'jhtml'
p1440
I2069
sS'br'
p1441
I2024
sS'extra'
p1442
I2017
sS'pentium'
p1443
I3805
sS'ipo'
p1444
I2961
sS'marked'
p1445
I2919
sS'bloody'
p1446
I3244
sS'peer'
p1447
I1679
sS'patriots'
p1448
I1540
sS'licensing'
p1449
I3384
sS'verge'
p1450
I4351
sS'touchdown'
p1451
I997
sS'crime'
p1452
I3126
sS'briton'
p1453
I3604
sS'crisis'
p1454
I1000
sS'market'
p1455
I141
sS'hotels'
p1456
I2901
sS'troops'
p1457
I401
sS'working'
p1458
I853
sS'lose'
p1459
I2066
sS'ariel'
p1460
I1192
sS'positive'
p1461
I1628
sS'angry'
p1462
I3417
sS'prompting'
p1463
I3270
sS'visit'
p1464
I896
sS'athens'
p1465
I330
sS'sports'
p1466
I249
sS'abbas'
p1467
I3957
sS'msn'
p1468
I1663
sS'live'
p1469
I1569
sS'bombings'
p1470
I2518
sS'andy'
p1471
I1722
sS'vaccine'
p1472
I3140
sS'peru'
p1473
I4396
sS'memory'
p1474
I1277
sS'films'
p1475
I4007
sS'material'
p1476
I3440
sS'australian'
p1477
I462
sS'angels'
p1478
I1985
sS'today'
p1479
I95
sS'chapter'
p1480
I3727
sS'``'
p1481
I60
sS'sharing'
p1482
I1423
sS'kerry'
p1483
I620
sS'club'
p1484
I584
sS'flying'
p1485
I2545
sS'phillies'
p1486
I4274
sS'apparent'
p1487
I2597
sS'wildlife'
p1488
I3451
sS'clients'
p1489
I3169
sS'abc'
p1490
I4427
sS'employee'
p1491
I2998
sS'cautious'
p1492
I3819
sS'cases'
p1493
I2908
sS'effort'
p1494
I835
sS'amelie'
p1495
I4152
sS'keeps'
p1496
I4403
sS'fly'
p1497
I2651
sS'organizations'
p1498
I2740
sS'valued'
p1499
I4524
sS'ibm'
p1500
I345
sS'tokyo'
p1501
I412
sS'car'
p1502
I416
sS'originally'
p1503
I4324
sS'cap'
p1504
I3211
sS'flu'
p1505
I1863
sS'indies'
p1506
I3556
sS'musab'
p1507
I3303
sS'believes'
p1508
I1904
sS'flagship'
p1509
I2958
sS'kiev'
p1510
I4058
sS'regions'
p1511
I4049
sS'can'
p1512
I138
sS'growing'
p1513
I680
sS'making'
p1514
I470
sS'metal'
p1515
I4585
sS'dispute'
p1516
I1352
sS'newspapers'
p1517
I3351
sS'social'
p1518
I2364
sS'streak'
p1519
I1385
sS'claim'
p1520
I1211
sS'del'
p1521
I4200
sS'citizens'
p1522
I3055
sS'trump'
p1523
I4586
sS'figure'
p1524
I2465
sS'recalled'
p1525
I4000
sS'december'
p1526
I934
sS'chip'
p1527
I638
sS'agent'
p1528
I1636
sS'heard'
p1529
I2447
sS'<pad>'
p1530
I0
sS'dropped'
p1531
I1169
sS'unveiled'
p1532
I945
sS'allowed'
p1533
I1607
sS'offense'
p1534
I1849
sS'counting'
p1535
I3730
sS'clothing'
p1536
I2807
sS'swedish'
p1537
I3227
sS'drama'
p1538
I4809
sS'rays'
p1539
I3379
sS'monitoring'
p1540
I4081
sS'winter'
p1541
I967
sS'write'
p1542
I3397
sS'means'
p1543
I2198
sS'1'
p1544
I77
sS'contracts'
p1545
I2684
sS'sunday'
p1546
I88
sS'vital'
p1547
I4187
sS'vancouver'
p1548
I4168
sS'fourth'
p1549
I342
sS'survivors'
p1550
I3993
sS'ensure'
p1551
I2828
sS'dominance'
p1552
I4311
sS'vodafone'
p1553
I2926
sS'economy'
p1554
I399
sS'146'
p1555
I3648
sS'criminal'
p1556
I1662
sS'product'
p1557
I721
sS'explorer'
p1558
I1822
sS'huge'
p1559
I1168
sS'may'
p1560
I137
sS'llc'
p1561
I4061
sS'sp2'
p1562
I3432
sS'aol'
p1563
I2307
sS'southern'
p1564
I508
sS'cease'
p1565
I4189
sS'islamic'
p1566
I947
sS'mac'
p1567
I1519
sS'produce'
p1568
I2647
sS'mae'
p1569
I2532
sS'designed'
p1570
I814
sS'idg'
p1571
I2893
sS'date'
p1572
I1989
sS'such'
p1573
I461
sS'employers'
p1574
I3739
sS'revealed'
p1575
I1331
sS'eighth'
p1576
I1791
sS'lifting'
p1577
I4089
sS'man'
p1578
I364
sS'natural'
p1579
I1909
sS'neck'
p1580
I3282
sS'johnson'
p1581
I1126
sS'sept'
p1582
I708
sS'futures'
p1583
I1248
sS'st'
p1584
I510
sS'switch'
p1585
I3401
sS'ones'
p1586
I3426
sS'so'
p1587
I260
sS'african'
p1588
I772
sS'hassan'
p1589
I2894
sS'sa'
p1590
I3630
sS'pollution'
p1591
I3913
sS'pulled'
p1592
I1372
sS'talk'
p1593
I1487
sS'exclusive'
p1594
I3674
sS'unsolicited'
p1595
I4802
sS'serving'
p1596
I2653
sS'81'
p1597
I4445
sS'insurgency'
p1598
I3503
sS'differences'
p1599
I4480
sS'mainly'
p1600
I4800
sS'years'
p1601
I97
sS'130'
p1602
I4840
sS'course'
p1603
I1154
sS'lsu'
p1604
I4369
sS'stayed'
p1605
I3700
sS'cuts'
p1606
I1107
sS'statements'
p1607
I4683
sS'cold'
p1608
I2297
sS'still'
p1609
I291
sS'birds'
p1610
I3530
sS'cola'
p1611
I3009
sS'tore'
p1612
I4608
sS'machine'
p1613
I2312
sS'cheap'
p1614
I4297
sS'group'
p1615
I101
sS'monitor'
p1616
I3221
sS'interesting'
p1617
I4696
sS'organisation'
p1618
I3293
sS'jim'
p1619
I2493
sS'louisville'
p1620
I4488
sS'aviv'
p1621
I4535
sS'platform'
p1622
I1557
sS'coaching'
p1623
I3136
sS'offers'
p1624
I1631
sS'suspicion'
p1625
I3994
sS'earnhardt'
p1626
I4865
sS'broncos'
p1627
I4045
sS'policy'
p1628
I920
sS'mail'
p1629
I636
sS'main'
p1630
I754
sS'decades'
p1631
I1320
sS'texas'
p1632
I651
sS'happened'
p1633
I3501
sS'non'
p1634
I1675
sS'finance'
p1635
I1016
sS'civilian'
p1636
I3238
sS'matches'
p1637
I2109
sS'devastated'
p1638
I4323
sS'100,000'
p1639
I4676
sS'killer'
p1640
I4964
sS'export'
p1641
I3568
sS'introduce'
p1642
I2617
sS'nation'
p1643
I336
sS'records'
p1644
I1794
sS'taliban'
p1645
I2247
sS'subscribers'
p1646
I2440
sS'half'
p1647
I298
sS'not'
p1648
I69
sS'feature'
p1649
I2220
sS'nov'
p1650
I652
sS'now'
p1651
I200
sS'killed'
p1652
I182
sS'halo'
p1653
I3153
sS'fla'
p1654
I1629
sS'term'
p1655
I696
sS'attorneys'
p1656
I4970
sS'name'
p1657
I904
sS'january'
p1658
I1090
sS'frank'
p1659
I2316
sS'drop'
p1660
I903
sS'47'
p1661
I2648
sS'locked'
p1662
I3723
sS'improvements'
p1663
I4935
sS'palmone'
p1664
I3559
sS'rock'
p1665
I2104
sS'colleagues'
p1666
I4526
sS'quarter'
p1667
I120
sS'semifinal'
p1668
I4443
sS'successful'
p1669
I1785
sS'el'
p1670
I2218
sS'domain'
p1671
I4109
sS'square'
p1672
I2471
sS'fired'
p1673
I866
sS'latin'
p1674
I4316
sS'zurich'
p1675
I4418
sS'cairo'
p1676
I3082
sS'revised'
p1677
I3339
sS'18th'
p1678
I4093
sS'challenges'
p1679
I3171
sS'challenger'
p1680
I3428
sS'trademark'
p1681
I4990
sS'ex'
p1682
I2505
sS'begun'
p1683
I1869
sS'year'
p1684
I43
sS'eu'
p1685
I918
sS'illinois'
p1686
I3049
sS'girl'
p1687
I2935
sS'teams'
p1688
I813
sS'monitors'
p1689
I4988
sS'tried'
p1690
I1584
sS'canada'
p1691
I691
sS'living'
p1692
I1759
sS'shown'
p1693
I3037
sS'inventories'
p1694
I2568
sS'jackson'
p1695
I2590
sS'opened'
p1696
I983
sS'space'
p1697
I240
sS'profit'
p1698
I277
sS'tensions'
p1699
I4188
sS'oklahoma'
p1700
I2113
sS'factory'
p1701
I2921
sS'looking'
p1702
I798
sS'seriously'
p1703
I3427
sS'investigation'
p1704
I902
sS'emerged'
p1705
I2192
sS'internet'
p1706
I124
sS'suggesting'
p1707
I3528
sS'formula'
p1708
I1239
sS'receiving'
p1709
I3775
sS'shows'
p1710
I1225
sS'eagle'
p1711
I4779
sS'earlier'
p1712
I624
sS'theory'
p1713
I4566
sS'siege'
p1714
I3208
sS'cars'
p1715
I1737
sS'million'
p1716
I84
sS'seventh'
p1717
I1665
sS'possibility'
p1718
I2659
sS'quite'
p1719
I2318
sS'statistics'
p1720
I4450
sS'california'
p1721
I541
sS'rebel'
p1722
I840
sS'carl'
p1723
I3631
sS'marine'
p1724
I3252
sS'card'
p1725
I1044
sS'care'
p1726
I1160
sS'advance'
p1727
I2168
sS'training'
p1728
I1397
sS'couldn'
p1729
I4025
sS'language'
p1730
I2620
sS'ministry'
p1731
I1217
sS'impose'
p1732
I3629
sS'programming'
p1733
I4648
sS'sven'
p1734
I3099
sS'british'
p1735
I216
sS'jintao'
p1736
I4776
sS'motion'
p1737
I2077
sS'turn'
p1738
I1011
sS'place'
p1739
I533
sS'massive'
p1740
I1417
sS'swing'
p1741
I4388
sS'rumsfeld'
p1742
I4268
sS'think'
p1743
I1173
sS'teammates'
p1744
I3090
sS'first'
p1745
I45
sS'highway'
p1746
I4912
sS'romania'
p1747
I4856
sS'tennis'
p1748
I1375
sS'saving'
p1749
I3724
sS'revenue'
p1750
I709
sS'waves'
p1751
I4019
sS'one'
p1752
I55
sS'opec'
p1753
I1897
sS'soaring'
p1754
I2213
sS'temporarily'
p1755
I4248
sS'americans'
p1756
I811
sS'long'
p1757
I213
sS'suspended'
p1758
I1296
sS'spanish'
p1759
I1264
sS'vote'
p1760
I784
sS'impossible'
p1761
I4993
sS'xp'
p1762
I1172
sS'drove'
p1763
I2211
sS'open'
p1764
I163
sS'george'
p1765
I734
sS'millions'
p1766
I1058
sS'airbus'
p1767
I2052
sS'city'
p1768
I154
sS'given'
p1769
I1021
sS'ian'
p1770
I3798
sS'district'
p1771
I1741
sS'santander'
p1772
I4725
sS'caught'
p1773
I2295
sS'plagued'
p1774
I4335
sS'anyone'
p1775
I2383
sS'returns'
p1776
I2914
sS'2'
p1777
I81
sS'draft'
p1778
I1960
sS'convention'
p1779
I1877
sS'shoppers'
p1780
I2948
sS'white'
p1781
I705
sS'violated'
p1782
I4713
sS'williams'
p1783
I718
sS'gives'
p1784
I2541
sS'acquisitions'
p1785
I4783
sS'mining'
p1786
I2551
sS'showdown'
p1787
I2924
sS'allegedly'
p1788
I1903
sS'that'
p1789
I14
sS'pittsburgh'
p1790
I1365
sS'season'
p1791
I113
sS'moscow'
p1792
I838
sS'suit'
p1793
I2265
sS'alan'
p1794
I1706
sS'broadcast'
p1795
I2292
sS'released'
p1796
I321
sS'slashed'
p1797
I4135
sS'tehran'
p1798
I1452
sS'uranium'
p1799
I1480
sS'republic'
p1800
I1542
sS'surged'
p1801
I1895
sS'than'
p1802
I63
sS'population'
p1803
I3111
sS'11'
p1804
I341
sS'10'
p1805
I155
sS'13'
p1806
I549
sS'12'
p1807
I397
sS'15'
p1808
I448
sS'14'
p1809
I511
sS'17'
p1810
I489
sS'16'
p1811
I562
sS'19'
p1812
I649
sS'18'
p1813
I507
sS'require'
p1814
I3966
sS'diplomatic'
p1815
I3416
sS'whom'
p1816
I4515
sS'optimism'
p1817
I3578
sS'spokeswoman'
p1818
I3523
sS'officials'
p1819
I144
sS'venture'
p1820
I1605
sS'were'
p1821
I74
sS'cards'
p1822
I2022
sS'marines'
p1823
I2922
sS'opponent'
p1824
I3110
sS'russia'
p1825
I459
sS'browser'
p1826
I1131
sS'and'
p1827
I9
sS'gathering'
p1828
I3971
sS'portsmouth'
p1829
I4793
sS'san'
p1830
I214
sS'investors'
p1831
I339
sS'remained'
p1832
I1414
sS'craig'
p1833
I1961
sS'pro'
p1834
I1103
sS'premier'
p1835
I1349
sS'turned'
p1836
I952
sS'deutsche'
p1837
I3259
sS'13th'
p1838
I4960
sS'say'
p1839
I261
sS'slam'
p1840
I2750
sS'buried'
p1841
I3884
sS'anger'
p1842
I4280
sS'allen'
p1843
I3146
sS'sells'
p1844
I4286
sS'recover'
p1845
I3484
sS'saw'
p1846
I1289
sS'any'
p1847
I387
sS'kevin'
p1848
I1851
sS'sat'
p1849
I4288
sS'offering'
p1850
I665
sS'coal'
p1851
I3225
sS'veteran'
p1852
I2011
sS'manufacturers'
p1853
I2560
sS'aside'
p1854
I2680
sS'note'
p1855
I4269
sS'equipment'
p1856
I955
sS'intends'
p1857
I4244
sS'potential'
p1858
I1166
sS'matthew'
p1859
I4919
sS'take'
p1860
I234
sS'stockholm'
p1861
I3720
sS'online'
p1862
I204
sS'interior'
p1863
I3135
sS'performance'
p1864
I698
sS'wonder'
p1865
I4072
sS'tigers'
p1866
I2467
sS'channel'
p1867
I2356
sS'200'
p1868
I1337
sS'begin'
p1869
I793
sS'sure'
p1870
I1708
sS'multiple'
p1871
I2788
sS'normal'
p1872
I3813
sS'track'
p1873
I1141
sS'price'
p1874
I439
sS'knew'
p1875
I2578
sS'suspects'
p1876
I2671
sS'paid'
p1877
I1522
sS'falls'
p1878
I4344
sS'visitors'
p1879
I3345
sS'assault'
p1880
I1596
sS'fcc'
p1881
I4925
sS'mate'
p1882
I4836
sS'stormed'
p1883
I3309
sS'pair'
p1884
I1949
sS'knee'
p1885
I1623
sS'america'
p1886
I400
sS'pages'
p1887
I3696
sS'lebron'
p1888
I4829
sS'cuban'
p1889
I4251
sS'operate'
p1890
I4270
sS'especially'
p1891
I2798
sS'surprising'
p1892
I3443
sS'serie'
p1893
I4733
sS'considered'
p1894
I2340
sS'jakarta'
p1895
I1724
sS'average'
p1896
I989
sS'later'
p1897
I966
sS'steady'
p1898
I2703
sS'sale'
p1899
I954
sS'mourning'
p1900
I4385
sS'ottawa'
p1901
I2092
sS'ways'
p1902
I1943
sS'quiet'
p1903
I3958
sS'prepare'
p1904
I2989
sS'ferrari'
p1905
I3886
sS'conrad'
p1906
I4421
sS'clearing'
p1907
I3672
sS'infringement'
p1908
I2899
sS'professional'
p1909
I2136
sS'senior'
p1910
I608
sS'wine'
p1911
I3877
sS'filing'
p1912
I1618
sS'laws'
p1913
I2221
sS'shop'
p1914
I3611
sS'rating'
p1915
I4060
sS'madison'
p1916
I3654
sS'shot'
p1917
I567
sS'beckham'
p1918
I2665
sS'show'
p1919
I607
sS'german'
p1920
I732
sS'slugger'
p1921
I4560
sS'filed'
p1922
I800
sS'allegations'
p1923
I1680
sS'spyware'
p1924
I2038
sS'representatives'
p1925
I2606
sS'discovered'
p1926
I1561
sS'russian'
p1927
I383
sS'troy'
p1928
I3897
sS'teamed'
p1929
I4656
sS'corner'
p1930
I4717
sS'aggressive'
p1931
I3272
sS'maine'
p1932
I4502
sS'fifth'
p1933
I984
sS'ground'
p1934
I1040
sS'waited'
p1935
I4905
sS'slow'
p1936
I1392
sS'gulf'
p1937
I1792
sS'title'
p1938
I479
sS'daily'
p1939
I1590
sS'dick'
p1940
I3063
sS'storms'
p1941
I3594
sS'3'
p1942
I126
sS'42'
p1943
I2501
sS'welcomed'
p1944
I3167
sS'only'
p1945
I262
sS'going'
p1946
I647
sS'black'
p1947
I1006
sS'hockey'
p1948
I1339
sS'treasury'
p1949
I1773
sS'watching'
p1950
I2849
sS'nc'
p1951
I4105
sS'congressional'
p1952
I3420
sS'carolina'
p1953
I1321
sS'televisions'
p1954
I4134
sS'ranking'
p1955
I2308
sS'backup'
p1956
I3241
sS'occupied'
p1957
I3744
sS'get'
p1958
I285
sS'hostage'
p1959
I745
sS'assistant'
p1960
I2575
sS'witness'
p1961
I3751
sS'predict'
p1962
I4584
sS'<eos>'
p1963
I2
sS'mission'
p1964
I1111
sS'tens'
p1965
I2843
sS'baghdad'
p1966
I268
sS'hailed'
p1967
I3625
sS'ramirez'
p1968
I4258
sS'nearly'
p1969
I355
sS'auburn'
p1970
I2315
sS'holidays'
p1971
I4799
sS'gen'
p1972
I4697
sS'celebrate'
p1973
I3632
sS'prime'
p1974
I185
sS'reveal'
p1975
I4113
sS'regarding'
p1976
I3390
sS'reading'
p1977
I3058
sS'resorts'
p1978
I4484
sS'floods'
p1979
I3127
sS'versions'
p1980
I2760
sS'malaysian'
p1981
I4594
sS'morning'
p1982
I556
sS'miles'
p1983
I1490
sS'roger'
p1984
I1412
sS'predicted'
p1985
I2495
sS'bombs'
p1986
I1887
sS'worries'
p1987
I1499
sS'scott'
p1988
I2304
sS'finishing'
p1989
I3814
sS'where'
p1990
I340
sS'vision'
p1991
I4033
sS'helps'
p1992
I4419
sS'declared'
p1993
I1750
sS'espn'
p1994
I3056
sS'staged'
p1995
I4599
sS'twin'
p1996
I4225
sS'committed'
p1997
I3162
sS'rebounded'
p1998
I4181
sS'seat'
p1999
I2853
sS'connections'
p2000
I3481
sS'elected'
p2001
I2428
sS'plea'
p2002
I4968
sS'college'
p2003
I894
sS'sean'
p2004
I3324
sS'stanley'
p2005
I4653
sS'surgery'
p2006
I1615
sS'sport'
p2007
I1552
sS'concern'
p2008
I1318
sS'kurt'
p2009
I4037
sS'israeli'
p2010
I353
sS'panthers'
p2011
I4100
sS'mortgage'
p2012
I1424
sS'farmers'
p2013
I4173
sS'federal'
p2014
I180
sS'jumped'
p2015
I1676
sS'review'
p2016
I1678
sS'sites'
p2017
I1041
sS'forecast'
p2018
I871
sS'weapons'
p2019
I801
sS'outside'
p2020
I758
sS"'re"
p2021
I1777
sS'bureau'
p2022
I4649
sS'between'
p2023
I205
sS'marks'
p2024
I3758
sS'bombing'
p2025
I1718
sS'helicopters'
p2026
I4452
sS'across'
p2027
I544
sS'arrival'
p2028
I4429
sS'quarterbacks'
p2029
I4777
sS'notice'
p2030
I4272
sS'infrastructure'
p2031
I2566
sS'jobs'
p2032
I487
sS'august'
p2033
I678
sS'parent'
p2034
I2180
sS'screen'
p2035
I1705
sS'style'
p2036
I2232
sS'jr'
p2037
I2157
sS'killing'
p2038
I434
sS'blame'
p2039
I3535
sS'awards'
p2040
I3835
sS'supermarket'
p2041
I3986
sS'jets'
p2042
I1465
sS'20'
p2043
I352
sS'cities'
p2044
I2119
sS'come'
p2045
I628
sS'chavez'
p2046
I3256
sS'recall'
p2047
I2607
sS'recovered'
p2048
I3439
sS'rugby'
p2049
I3660
sS'libya'
p2050
I3596
sS'many'
p2051
I290
sS'region'
p2052
I443
sS'shortstop'
p2053
I4532
sS'according'
p2054
I184
sS'contract'
p2055
I455
sS'blasts'
p2056
I3707
sS'prompted'
p2057
I3322
sS'infoworld'
p2058
I3053
sS's'
p2059
I13
sS'disappointment'
p2060
I4531
sS'fined'
p2061
I3494
sS'senator'
p2062
I3882
sS'traded'
p2063
I2301
sS'comes'
p2064
I1151
sS'nearby'
p2065
I4449
sS'duty'
p2066
I4718
sS'pakistan'
p2067
I518
sS'cancer'
p2068
I1847
sS'150'
p2069
I2806
sS'color'
p2070
I973
sS'effective'
p2071
I2765
sS'roman'
p2072
I4339
sS'nobel'
p2073
I2848
sS'period'
p2074
I1436
sS'pop'
p2075
I3078
sS'expectations'
p2076
I922
sS'60'
p2077
I1458
sS'61'
p2078
I4315
sS'pole'
p2079
I3228
sS'63'
p2080
I3463
sS'anti'
p2081
I662
sS'65'
p2082
I2341
sS'66'
p2083
I2755
sS'approval'
p2084
I1587
sS'68'
p2085
I3613
sS'ordered'
p2086
I1500
sS'poll'
p2087
I1855
sS'custody'
p2088
I4468
sS'turkey'
p2089
I1610
sS'clashes'
p2090
I2724
sS'aiming'
p2091
I3326
sS'teammate'
p2092
I3826
sS'fallen'
p2093
I3858
sS'howard'
p2094
I1342
sS'stretch'
p2095
I3586
sS'west'
p2096
I334
sS'computing'
p2097
I1769
sS'airlines'
p2098
I720
sS'mark'
p2099
I612
sS'mart'
p2100
I1402
sS'susilo'
p2101
I4690
sS'beef'
p2102
I4202
sS'combined'
p2103
I3102
sS'mars'
p2104
I1702
sS'amateur'
p2105
I4861
sS'helicopter'
p2106
I2707
sS'featuring'
p2107
I4371
sS'hardly'
p2108
I5000
sS'mary'
p2109
I3912
sS'500'
p2110
I1332
sS'disclosed'
p2111
I3507
sS'wants'
p2112
I1024
sS'direction'
p2113
I3837
sS'enable'
p2114
I3969
sS'shopping'
p2115
I1269
sS'bloomberg'
p2116
I3911
sS'deadliest'
p2117
I3364
sS'offered'
p2118
I1140
sS'formed'
p2119
I3874
sS'andrew'
p2120
I2876
sS'antivirus'
p2121
I3987
sS'tiger'
p2122
I1333
sS'photos'
p2123
I2841
sS'dramatic'
p2124
I2335
sS'wake'
p2125
I1865
sS'minister'
p2126
I125
sS'penn'
p2127
I4563
sS'suspected'
p2128
I927
sS'presidency'
p2129
I4626
sS'champions'
p2130
I513
sS'those'
p2131
I619
sS'pilot'
p2132
I3492
sS'case'
p2133
I581
sS'hughes'
p2134
I4345
sS'sit'
p2135
I4765
sS'pti'
p2136
I4719
sS'developing'
p2137
I1521
sS'these'
p2138
I1113
sS'kazaa'
p2139
I3741
sS'mount'
p2140
I2809
sS'polls'
p2141
I2053
sS'cash'
p2142
I683
sS"n't"
p2143
I304
sS'cast'
p2144
I2846
sS'pacers'
p2145
I2394
sS'associates'
p2146
I1870
sS'ongoing'
p2147
I2290
sS'fines'
p2148
I4408
sS'coca'
p2149
I2885
sS'promising'
p2150
I3173
sS'newspaper'
p2151
I1158
sS'investigating'
p2152
I2034
sS'abducted'
p2153
I3754
sS'margin'
p2154
I4997
sS'spotlight'
p2155
I4876
sS'iyad'
p2156
I3710
sS'postseason'
p2157
I2423
sS'fool'
p2158
I4996
sS'adds'
p2159
I4350
sS'eventually'
p2160
I3506
sS'engaged'
p2161
I4901
sS'telephone'
p2162
I1511
sS'speedway'
p2163
I3541
sS'commander'
p2164
I2974
sS'middle'
p2165
I1053
sS'sudanese'
p2166
I1806
sS'evening'
p2167
I2063
sS'releases'
p2168
I3868
sS'kenya'
p2169
I3683
sS'technology'
p2170
I164
sS'fame'
p2171
I4271
sS'worry'
p2172
I3522
sS'different'
p2173
I1477
sS'missiles'
p2174
I4380
sS'develop'
p2175
I1324
sS'hollinger'
p2176
I3676
sS'media'
p2177
I433
sS'granted'
p2178
I3302
sS'bowl'
p2179
I885
sS'tour'
p2180
I783
sS'same'
p2181
I595
sS'trip'
p2182
I1717
sS'ceo'
p2183
I936
sS'wizards'
p2184
I3879
sS'speech'
p2185
I2105
sS'weakness'
p2186
I3910
sS'struggling'
p2187
I1437
sS'document'
p2188
I3900
sS'events'
p2189
I2264
sS'wimbledon'
p2190
I4077
sS'week'
p2191
I83
sS'jeffrey'
p2192
I4761
sS'oil'
p2193
I86
sS'edged'
p2194
I2120
sS'closest'
p2195
I3999
sS'singapore'
p2196
I1023
sS'boosted'
p2197
I1856
sS'downloads'
p2198
I3079
sS'rfid'
p2199
I4333
sS'driver'
p2200
I1771
sS'drives'
p2201
I2640
sS'director'
p2202
I1068
sS'running'
p2203
I506
sS'wired'
p2204
I4034
sS'intended'
p2205
I3319
sS'changing'
p2206
I3778
sS'anticipated'
p2207
I1983
sS'vowed'
p2208
I2042
sS'tracking'
p2209
I4483
sS'largely'
p2210
I2548
sS'charges'
p2211
I578
sS'iraqis'
p2212
I2186
sS'floor'
p2213
I3908
sS'roughly'
p2214
I4685
sS'rains'
p2215
I4839
sS'severe'
p2216
I3419
sS'costs'
p2217
I569
sS'sirius'
p2218
I4056
sS'relief'
p2219
I1638
sS'components'
p2220
I4067
sS'daimlerchrysler'
p2221
I4291
sS'very'
p2222
I1059
sS'easing'
p2223
I3692
sS'model'
p2224
I1923
sS'laboratories'
p2225
I4979
sS'directly'
p2226
I3608
sS'researchers'
p2227
I850
sS'charged'
p2228
I915
sS'surprisingly'
p2229
I4991
sS'summer'
p2230
I1047
sS'edwards'
p2231
I2850
sS'among'
p2232
I599
sS'being'
p2233
I246
sS'money'
p2234
I617
sS'milestone'
p2235
I4456
sS'pitched'
p2236
I2494
sS'rest'
p2237
I1266
sS'sweeping'
p2238
I2959
sS'violent'
p2239
I2281
sS'kill'
p2240
I2144
sS'topped'
p2241
I4413
sS'3,000'
p2242
I3818
sS'touch'
p2243
I3388
sS'diplomats'
p2244
I2642
sS'cargo'
p2245
I4643
sS'speed'
p2246
I743
sS'captured'
p2247
I2205
sS'weekly'
p2248
I3711
sS'blow'
p2249
I1682
sS'announcement'
p2250
I1562
sS'disruptions'
p2251
I4177
sS'death'
p2252
I605
sS'firing'
p2253
I3264
sS'euros'
p2254
I2734
sS'thinking'
p2255
I3422
sS'rose'
p2256
I286
sS'seems'
p2257
I1701
sS'except'
p2258
I5001
sS'desktop'
p2259
I816
sS'blog'
p2260
I3722
sS'lets'
p2261
I3340
sS'shrine'
p2262
I2699
sS'bloc'
p2263
I4155
sS'4'
p2264
I153
sS'door'
p2265
I3318
sS'plenty'
p2266
I3147
sS'role'
p2267
I1204
sS'struck'
p2268
I1282
sS'ca'
p2269
I1533
sS'momentum'
p2270
I3276
sS'scheduled'
p2271
I1224
sS'negotiating'
p2272
I4145
sS'around'
p2273
I377
sS'phelps'
p2274
I2962
sS'rules'
p2275
I1238
sS'delhi'
p2276
I1357
sS'absence'
p2277
I4366
sS'virginia'
p2278
I1178
sS'unveil'
p2279
I3917
sS'early'
p2280
I269
sS'hander'
p2281
I3812
sS'inflation'
p2282
I1492
sS'traffic'
p2283
I1790
sS'seahawks'
p2284
I3585
sS'jays'
p2285
I3453
sS'amp'
p2286
I376
sS'accepted'
p2287
I2772
sS'disappointed'
p2288
I4320
sS'74'
p2289
I4389
sS'ruled'
p2290
I1061
sS'danger'
p2291
I3701
sS'intel'
p2292
I535
sS'pounds'
p2293
I3104
sS'patrick'
p2294
I3222
sS'62'
p2295
I3263
sS'server'
p2296
I748
sS'facing'
p2297
I1469
sS'benefit'
p2298
I2681
sS'popularity'
p2299
I4169
sS't'
p2300
I171
sS'retailers'
p2301
I1728
sS'fully'
p2302
I3341
sS'64'
p2303
I1687
sS'inter'
p2304
I4412
sS'reduced'
p2305
I2645
sS'policemen'
p2306
I4917
sS'cisco'
p2307
I1288
sS'learning'
p2308
I4891
sS'madrid'
p2309
I860
sS'titan'
p2310
I2492
sS'lebanon'
p2311
I2986
sS'competition'
p2312
I757
sS'pk'
p2313
I4825
sS'fixing'
p2314
I4830
sS'eddie'
p2315
I4249
sS'cowboys'
p2316
I3195
sS'images'
p2317
I2101
sS'bigger'
p2318
I2637
sS'swapping'
p2319
I3953
sS'booming'
p2320
I4822
sS'provided'
p2321
I2408
sS'cp'
p2322
I843
sS'caribbean'
p2323
I2761
sS'sudan'
p2324
I741
sS'blasted'
p2325
I4540
sS'recorded'
p2326
I3325
sS'legal'
p2327
I833
sS'moon'
p2328
I1243
sS'flow'
p2329
I4495
sS'graeme'
p2330
I3945
sS'zimbabwe'
p2331
I2504
sS'critical'
p2332
I1643
sS'exit'
p2333
I3978
sS'deficit'
p2334
I1312
sS'provides'
p2335
I3059
sS'provider'
p2336
I1149
sS'71'
p2337
I3869
sS'moderate'
p2338
I4438
sS'nuggets'
p2339
I4773
sS'freed'
p2340
I2400
sS'considering'
p2341
I1721
sS'arabia'
p2342
I2867
sS'felt'
p2343
I2900
sS'assembly'
p2344
I2744
sS'scientific'
p2345
I2333
sS'power'
p2346
I452
sS'airways'
p2347
I1018
sS'seconds'
p2348
I1442
sS'sixth'
p2349
I1684
sS'strained'
p2350
I3233
sS'broker'
p2351
I2519
sS'volkswagen'
p2352
I4572
sS'pinochet'
p2353
I4771
sS'broken'
p2354
I2110
sS'leadership'
p2355
I2259
sS'thailand'
p2356
I1574
sS'frances'
p2357
I2448
sS'aide'
p2358
I4159
sS'throw'
p2359
I4141
sS'manufacturer'
p2360
I2245
sS'acc'
p2361
I4866
sS'on'
p2362
I10
sS'central'
p2363
I534
sS'ace'
p2364
I4046
sS'package'
p2365
I1756
sS'island'
p2366
I968
sS'industry'
p2367
I239
sS'violence'
p2368
I731
sS'favorite'
p2369
I2871
sS'ob'
p2370
I5002
sS'thousands'
p2371
I654
sS'muslims'
p2372
I3029
sS'airline'
p2373
I786
sS'act'
p2374
I1664
sS'mixed'
p2375
I2202
sS'bond'
p2376
I3809
sS'os'
p2377
I1814
sS'or'
p2378
I114
sS'road'
p2379
I1186
sS'tape'
p2380
I3679
sS'barrels'
p2381
I4071
sS'outlook'
p2382
I1033
sS'protests'
p2383
I3414
sS'burning'
p2384
I4930
sS'khan'
p2385
I3904
sS'instruments'
p2386
I3599
sS'image'
p2387
I1703
sS'signing'
p2388
I2417
sS'marlins'
p2389
I3555
sS'rolling'
p2390
I3382
sS'everyone'
p2391
I2527
sS'rising'
p2392
I921
sS'determine'
p2393
I3001
sS'strip'
p2394
I951
sS'operator'
p2395
I1379
sS'watchdog'
p2396
I1782
sS'valuable'
p2397
I3691
sS'jerusalem'
p2398
I1360
sS'qtype'
p2399
I2095
sS'your'
p2400
I436
sS'tropical'
p2401
I2842
sS'fueled'
p2402
I3749
sS'fill'
p2403
I4111
sS'her'
p2404
I233
sS'area'
p2405
I852
sS'hip'
p2406
I4156
sS'qualifying'
p2407
I1691
sS'there'
p2408
I206
sS'alleged'
p2409
I1037
sS'desert'
p2410
I2626
sS'los'
p2411
I505
sS'lions'
p2412
I2860
sS'low'
p2413
I514
sS'lot'
p2414
I1726
sS'brazilian'
p2415
I2503
sS'hanging'
p2416
I4900
sS'valencia'
p2417
I4787
sS'valley'
p2418
I2936
sS'fish'
p2419
I2742
sS'napster'
p2420
I4142
sS'agreements'
p2421
I4242
sS'truck'
p2422
I2757
sS'billion'
p2423
I139
sS'tycoon'
p2424
I4307
sS'complete'
p2425
I1525
sS'enough'
p2426
I785
sS'pitcher'
p2427
I1550
sS'delayed'
p2428
I1742
sS'strikes'
p2429
I3181
sS'striker'
p2430
I1256
sS'defeating'
p2431
I4582
sS'brain'
p2432
I2973
sS'hurricanes'
p2433
I1900
sS'mich'
p2434
I3698
sS'fighter'
p2435
I4804
sS'technologies'
p2436
I960
sS'trying'
p2437
I714
sS'with'
p2438
I17
sS'buying'
p2439
I1322
sS'faster'
p2440
I1935
sS'pull'
p2441
I2155
sS'rush'
p2442
I4294
sS'october'
p2443
I422
sS'conglomerate'
p2444
I4076
sS'nigerian'
p2445
I2691
sS'wholesale'
p2446
I4044
sS'publishing'
p2447
I4178
sS'69'
p2448
I3285
sS'emissions'
p2449
I3833
sS'agree'
p2450
I2325
sS'connect'
p2451
I4617
sS'aa'
p2452
I4420
sS'engine'
p2453
I759
sS'attacked'
p2454
I2276
sS'taylor'
p2455
I3647
sS'ad'
p2456
I1592
sS'ag'
p2457
I1928
sS'certain'
p2458
I1872
sS'hosted'
p2459
I4786
sS'moved'
p2460
I974
sS'sales'
p2461
I175
sS'deep'
p2462
I2004
sS'ban'
p2463
I1182
sS'investigations'
p2464
I4916
sS'cbs'
p2465
I889
sS'britain'
p2466
I551
sS'au'
p2467
I2477
sS'at'
p2468
I20
sS'file'
p2469
I857
sS'laboratory'
p2470
I3653
sS'watched'
p2471
I2425
sS'moves'
p2472
I2251
sS'eliot'
p2473
I3316
sS'portland'
p2474
I3896
sS'film'
p2475
I1478
sS'audience'
p2476
I3935
sS'innings'
p2477
I1327
sS'beyond'
p2478
I2086
sS'receive'
p2479
I2484
sS'piracy'
p2480
I2337
sS'drivers'
p2481
I2714
sS'storage'
p2482
I1025
sS'insurance'
p2483
I807
sS'field'
p2484
I523
sS'2001'
p2485
I1585
sS'5'
p2486
I166
sS'gambling'
p2487
I4994
sS'you'
p2488
I157
sS'forcing'
p2489
I3374
sS'thousand'
p2490
I4491
sS'poor'
p2491
I1378
sS'briefly'
p2492
I4423
sS'championship'
p2493
I375
sS'strokes'
p2494
I4504
sS'blackburn'
p2495
I4425
sS'congress'
p2496
I1129
sS'separate'
p2497
I2060
sS'students'
p2498
I1776
sS'finale'
p2499
I4523
sS'bombed'
p2500
I4894
sS'enjoyed'
p2501
I4878
sS'includes'
p2502
I1840
sS'walker'
p2503
I3756
sS'important'
p2504
I1194
sS'massachusetts'
p2505
I2320
sS'coverage'
p2506
I3658
sS'terry'
p2507
I3822
sS'chris'
p2508
I1789
sS'stocks'
p2509
I123
sS'finals'
p2510
I1573
sS'pool'
p2511
I3487
sS'stakes'
p2512
I3570
sS'building'
p2513
I1013
sS'shipping'
p2514
I2185
sS'remote'
p2515
I1993
sS'assets'
p2516
I1715
sS'calls'
p2517
I1070
sS'wife'
p2518
I2121
sS'controlled'
p2519
I2746
sS'invest'
p2520
I3517
sS'qantas'
p2521
I4624
sS'midfielder'
p2522
I3564
sS'barcelona'
p2523
I2576
sS'enrichment'
p2524
I1937
sS'directors'
p2525
I2030
sS'passed'
p2526
I1405
sS'u'
p2527
I65
sS'adam'
p2528
I3438
sS'missouri'
p2529
I4914
sS'goran'
p2530
I3772
sS'overseas'
p2531
I2815
sS'starting'
p2532
I752
sS'original'
p2533
I3192
sS'all'
p2534
I111
sS'cameras'
p2535
I2698
sS'eriksson'
p2536
I3789
sS'consider'
p2537
I1672
sS'chinese'
p2538
I725
sS'ali'
p2539
I2420
sS'aids'
p2540
I4775
sS'caused'
p2541
I1304
sS'prospect'
p2542
I3529
sS'lack'
p2543
I2486
sS'dollar'
p2544
I337
sS'worms'
p2545
I4235
sS'month'
p2546
I151
sS'unrest'
p2547
I4551
sS'spacecraft'
p2548
I1325
sS'code'
p2549
I1271
sS'deadline'
p2550
I1941
sS'mp3'
p2551
I2888
sS'talks'
p2552
I300
sS'managed'
p2553
I2411
sS'settlement'
p2554
I1498
sS'religious'
p2555
I2951
sS'children'
p2556
I851
sS'79'
p2557
I4578
sS'semiconductor'
p2558
I1460
sS'ravens'
p2559
I2562
sS'vulnerability'
p2560
I4162
sS'ron'
p2561
I2277
sS'vikings'
p2562
I3458
sS'tv'
p2563
I882
sS'pledged'
p2564
I2441
sS'cheney'
p2565
I3511
sS'thursday'
p2566
I59
sS'former'
p2567
I143
sS'gary'
p2568
I2118
sS'to'
p2569
I6
sS'aaron'
p2570
I3851
sS'program'
p2571
I468
sS'present'
p2572
I3464
sS'malaysia'
p2573
I2822
sS'health'
p2574
I590
sS'lawmakers'
p2575
I2350
sS'longtime'
p2576
I4112
sS'activities'
p2577
I1951
sS'woman'
p2578
I1184
sS'returned'
p2579
I1119
sS'spreading'
p2580
I4846
sS'egyptian'
p2581
I2415
sS'far'
p2582
I706
sS'supercomputer'
p2583
I2729
sS'mph'
p2584
I3878
sS'resistance'
p2585
I3394
sS'ichiro'
p2586
I4859
sS'worst'
p2587
I1420
sS'hewlett'
p2588
I1555
sS'fall'
p2589
I707
sS'sony'
p2590
I796
sS'ticket'
p2591
I3405
sS'ticker'
p2592
I196
sS'condition'
p2593
I2953
sS'syracuse'
p2594
I4453
sS'gov'
p2595
I3496
sS'sans'
p2596
I1179
sS'cable'
p2597
I1430
sS'louis'
p2598
I956
sS'clinched'
p2599
I3728
sS'arts'
p2600
I4965
sS'list'
p2601
I883
sS'joined'
p2602
I1693
sS'plotting'
p2603
I4756
sS'large'
p2604
I818
sS'circuit'
p2605
I2676
sS'saudi'
p2606
I1753
sS'harry'
p2607
I3091
sS'small'
p2608
I629
sS'bench'
p2609
I4254
sS'ovitz'
p2610
I4522
sS'sank'
p2611
I4622
sS'programme'
p2612
I2716
sS'tel'
p2613
I4346
sS'portable'
p2614
I1825
sS'ten'
p2615
I1755
sS'ukrainian'
p2616
I4454
sS'penalties'
p2617
I4298
sS'vioxx'
p2618
I1952
sS'unable'
p2619
I3764
sS'past'
p2620
I392
sS'winds'
p2621
I2452
sS'rate'
p2622
I676
sS'titles'
p2623
I2866
sS'design'
p2624
I1841
sS'displays'
p2625
I4941
sS'lawyer'
p2626
I2553
sS'pass'
p2627
I1373
sS'link'
p2628
I2909
sS'further'
p2629
I845
sS'nba'
p2630
I1190
sS'investment'
p2631
I768
sS'osama'
p2632
I2666
sS'milosevic'
p2633
I4985
sS'trick'
p2634
I4381
sS'what'
p2635
I179
sS'defence'
p2636
I1807
sS'stood'
p2637
I3344
sS'shaukat'
p2638
I4428
sS'consumers'
p2639
I829
sS'clock'
p2640
I4432
sS'sun'
p2641
I575
sS'anniversary'
p2642
I2511
sS'devastating'
p2643
I3538
sS'witnesses'
p2644
I1619
sS'version'
p2645
I426
sS'abu'
p2646
I1354
sS'scientists'
p2647
I474
sS'learned'
p2648
I3189
sS'racing'
p2649
I1582
sS'public'
p2650
I349
sS'movement'
p2651
I2895
sS'schumacher'
p2652
I3477
sS'turmoil'
p2653
I4844
sS'myanmar'
p2654
I3255
sS'full'
p2655
I666
sS'iran'
p2656
I582
sS'policies'
p2657
I3209
sS'enabled'
p2658
I4834
sS'component'
p2659
I4577
sS'ntt'
p2660
I4088
sS'hours'
p2661
I701
sS'eisner'
p2662
I3832
sS'tracks'
p2663
I4590
sS'operating'
p2664
I588
sS'situation'
p2665
I2146
sS'ontario'
p2666
I4680
sS'november'
p2667
I497
sS'strong'
p2668
I301
sS'legend'
p2669
I4967
sS'arena'
p2670
I2923
sS'publisher'
p2671
I2812
sS'search'
p2672
I226
sS'prosecutors'
p2673
I1799
sS'sender'
p2674
I4461
sS'ahead'
p2675
I368
sS'houses'
p2676
I4123
sS'inspired'
p2677
I4591
sS'losses'
p2678
I1085
sS'allows'
p2679
I1836
sS'experience'
p2680
I2883
sS'significantly'
p2681
I3800
sS'soldier'
p2682
I1907
sS'airport'
p2683
I1163
sS'simply'
p2684
I3196
sS'advertising'
p2685
I1336
sS'gear'
p2686
I3355
sS'published'
p2687
I1267
sS'action'
p2688
I646
sS'narrow'
p2689
I4633
sS'options'
p2690
I2139
sS'eclipse'
p2691
I4087
sS'via'
p2692
I1984
sS'followed'
p2693
I2762
sS'family'
p2694
I855
sS'suddenly'
p2695
I3748
sS'africa'
p2696
I819
sS'thatcher'
p2697
I3843
sS'10,000'
p2698
I2985
sS'backed'
p2699
I1343
sS'href'
p2700
I223
sS'aimed'
p2701
I763
sS'toys'
p2702
I3903
sS'gunmen'
p2703
I2057
sS'marat'
p2704
I4552
sS'armed'
p2705
I1456
sS'estimate'
p2706
I4399
sS'shareholders'
p2707
I1350
sS'eye'
p2708
I2179
sS'takes'
p2709
I1446
sS'0'
p2710
I193
sS'intense'
p2711
I3589
sS'petroleum'
p2712
I2748
sS'two'
p2713
I38
sS'damaged'
p2714
I3821
sS'pitching'
p2715
I3123
sS'6'
p2716
I130
sS'taken'
p2717
I792
sS'promoting'
p2718
I4972
sS'injury'
p2719
I957
sS'markets'
p2720
I765
sS'minor'
p2721
I3718
sS'more'
p2722
I51
sS'flat'
p2723
I1784
sS'israel'
p2724
I573
sS'fellow'
p2725
I2431
sS'knows'
p2726
I2978
sS'definition'
p2727
I3219
sS'cnet'
p2728
I4962
sS'company'
p2729
I58
sS'mozilla'
p2730
I1981
sS'putin'
p2731
I1509
sS'captors'
p2732
I4078
sS'tested'
p2733
I3334
sS'landed'
p2734
I3547
sS'outfielder'
p2735
I3445
sS'unique'
p2736
I4224
sS'broke'
p2737
I1441
sS'known'
p2738
I778
sS'nbc'
p2739
I4937
sS'factories'
p2740
I3454
sS'producing'
p2741
I2898
sS'town'
p2742
I961
sS'hardware'
p2743
I2003
sS'keeping'
p2744
I2147
sS'shared'
p2745
I4401
sS'vladimir'
p2746
I1398
sS'canceled'
p2747
I4382
sS'science'
p2748
I1394
sS'ata'
p2749
I3995
sS'coalition'
p2750
I1892
sS'guards'
p2751
I4819
sS'remain'
p2752
I1219
sS'sudden'
p2753
I4623
sS'nine'
p2754
I644
sS'resources'
p2755
I2323
sS'morgan'
p2756
I2598
sS'learn'
p2757
I3549
sS'knocked'
p2758
I3138
sS'dec'
p2759
I1148
sS'chirac'
p2760
I3412
sS'history'
p2761
I586
sS'f1'
p2762
I4708
sS'finland'
p2763
I3883
sS'challenging'
p2764
I4398
sS'brown'
p2765
I1226
sS'rodriguez'
p2766
I3988
sS'messages'
p2767
I2351
sS'share'
p2768
I418
sS'malicious'
p2769
I3425
sS'accept'
p2770
I2313
sS'boycott'
p2771
I4542
sS'states'
p2772
I148
sS'pushed'
p2773
I2012
sS'adobe'
p2774
I3023
sS'downloading'
p2775
I4854
sS'numbers'
p2776
I1603
sS'purchased'
p2777
I4410
sS'sense'
p2778
I3257
sS'sharp'
p2779
I1494
sS'robinson'
p2780
I4512
sS'species'
p2781
I1656
sS'simple'
p2782
I3076
sS'federation'
p2783
I3637
sS'!'
p2784
I1071
sS'information'
p2785
I563
sS'needs'
p2786
I1532
sS'answer'
p2787
I2837
sS'court'
p2788
I201
sS'goal'
p2789
I881
sS'sluggish'
p2790
I3038
sS'rather'
p2791
I1906
sS'allawi'
p2792
I2254
sS'breaking'
p2793
I1567
sS'conducted'
p2794
I3393
sS'dismissed'
p2795
I2461
sS'stemming'
p2796
I4939
sS'earnings'
p2797
I331
sS'fed'
p2798
I3041
sS'justin'
p2799
I2778
sS'browns'
p2800
I3094
sS'plant'
p2801
I1526
sS'flooding'
p2802
I4581
sS'plans'
p2803
I191
sS'spitzer'
p2804
I2943
sS'notre'
p2805
I1888
sS'advice'
p2806
I4144
sS'brett'
p2807
I3926
sS'par'
p2808
I1712
sS'santa'
p2809
I3289
sS'favre'
p2810
I4567
sS'crashed'
p2811
I1834
sS'plane'
p2812
I1529
sS'streets'
p2813
I2234
sS'blood'
p2814
I1908
sS'coming'
p2815
I849
sS'fi'
p2816
I2314
sS'pleaded'
p2817
I2483
sS'lanka'
p2818
I2604
sS'response'
p2819
I2088
sS'carmaker'
p2820
I4670
sS'a'
p2821
I5
sS'trucks'
p2822
I4063
sS'short'
p2823
I774
sS'crowded'
p2824
I3182
sS'vijay'
p2825
I2376
sS'quoted'
p2826
I3618
sS'doctor'
p2827
I4769
sS'thai'
p2828
I4212
sS'overnight'
p2829
I2019
sS'declining'
p2830
I4654
sS'perhaps'
p2831
I2249
sS'broadcasting'
p2832
I4319
sS'responsibility'
p2833
I3131
sS'fenway'
p2834
I3377
sS'pay'
p2835
I411
sS'banks'
p2836
I1351
sS'dream'
p2837
I2820
sS'playing'
p2838
I1020
sS'submarine'
p2839
I4285
sS'mexican'
p2840
I4663
sS'help'
p2841
I244
sS'wickets'
p2842
I3011
sS'september'
p2843
I428
sS'developed'
p2844
I1232
sS'soon'
p2845
I729
sS'setback'
p2846
I3687
sS'trade'
p2847
I307
sS'held'
p2848
I315
sS'runner'
p2849
I4309
sS'industrial'
p2850
I1495
sS'through'
p2851
I248
sS'committee'
p2852
I1110
sS'signs'
p2853
I1496
sS'milwaukee'
p2854
I3191
sS'suffer'
p2855
I4736
sS'its'
p2856
I19
sS'developer'
p2857
I1899
sS'24'
p2858
I627
sS'25'
p2859
I583
sS'26'
p2860
I1077
sS'27'
p2861
I908
sS'arial'
p2862
I1246
sS'21'
p2863
I681
sS'22'
p2864
I935
sS'23'
p2865
I884
sS'pcs'
p2866
I1471
sS'28'
p2867
I963
sS'29'
p2868
I1197
sS'handheld'
p2869
I1868
sS'actually'
p2870
I3267
sS'late'
p2871
I429
sS'resort'
p2872
I3349
sS'quarterfinals'
p2873
I3803
sS'reuters'
p2874
I30
sS'systems'
p2875
I373
sS'stephen'
p2876
I2858
sS'inquiry'
p2877
I3051
sS'argentina'
p2878
I2528
sS'soccer'
p2879
I1089
sS'might'
p2880
I467
sS'ally'
p2881
I3329
sS'goog'
p2882
I3370
sS'pursue'
p2883
I4378
sS'good'
p2884
I536
sS'return'
p2885
I592
sS'calm'
p2886
I3849
sS'seeking'
p2887
I1153
sS'food'
p2888
I695
sS'slight'
p2889
I4439
sS'arsenal'
p2890
I948
sS'units'
p2891
I2550
sS'skipper'
p2892
I4334
sS'compound'
p2893
I4295
sS'foot'
p2894
I1713
sS'poverty'
p2895
I4138
sS'stepped'
p2896
I2474
sS'association'
p2897
I648
sS'impressive'
p2898
I3652
sS'mystery'
p2899
I4218
sS'easily'
p2900
I3128
sS'insurers'
p2901
I3974
sS'purdue'
p2902
I4942
sS'always'
p2903
I1929
sS'presented'
p2904
I4262
sS'spy'
p2905
I4101
sS'micro'
p2906
I2035
sS'someone'
p2907
I3026
sS'stopped'
p2908
I2491
sS'turns'
p2909
I3644
sS'found'
p2910
I361
sS'athletics'
p2911
I2675
sS'button'
p2912
I4544
sS'investigators'
p2913
I2713
sS'heavy'
p2914
I1193
sS'status'
p2915
I2584
sS'shock'
p2916
I2422
sS'england'
p2917
I338
sS'pirates'
p2918
I3852
sS'weight'
p2919
I3337
sS'generation'
p2920
I982
sS'house'
p2921
I494
sS'energy'
p2922
I501
sS'hard'
p2923
I737
sS'reduce'
p2924
I1381
sS'idea'
p2925
I2331
sS'democrat'
p2926
I2975
sS'extended'
p2927
I1427
sS'expect'
p2928
I1843
sS'todd'
p2929
I4980
sS'columbia'
p2930
I2339
sS'operation'
p2931
I1346
sS'thing'
p2932
I1739
sS'event'
p2933
I1067
sS'really'
p2934
I1673
sS'deals'
p2935
I2386
sS'funding'
p2936
I3415
sS'missed'
p2937
I1735
sS'ernie'
p2938
I3467
sS'threatens'
p2939
I4888
sS'robert'
p2940
I1838
sS'since'
p2941
I231
sS'research'
p2942
I192
sS'safety'
p2943
I1081
sS'hill'
p2944
I3100
sS'7'
p2945
I186
sS'brewers'
p2946
I4679
sS'urgent'
p2947
I4767
sS'roma'
p2948
I4748
sS'issue'
p2949
I1109
sS'arctic'
p2950
I3297
sS'fled'
p2951
I4473
sS'usatoday'
p2952
I3152
sS'reporting'
p2953
I2160
sS'wisconsin'
p2954
I3619
sS'friday'
p2955
I62
sS'beheaded'
p2956
I3991
sS'horse'
p2957
I3360
sS'symbian'
p2958
I4947
sS'sbc'
p2959
I2037
sS'reason'
p2960
I2016
sS'base'
p2961
I1370
sS'included'
p2962
I2832
sS'members'
p2963
I693
sS'put'
p2964
I444
sS'rises'
p2965
I4501
sS'beginning'
p2966
I1387
sS'guy'
p2967
I3706
sS'mmc'
p2968
I4698
sS'yasser'
p2969
I787
sS'thrown'
p2970
I3359
sS'driven'
p2971
I2047
sS'owners'
p2972
I1743
sS'benefits'
p2973
I1634
sS'zarqawi'
p2974
I2960
sS'launch'
p2975
I570
sS'computers'
p2976
I733
sS'success'
p2977
I1440
sS'american'
p2978
I173
sS'expecting'
p2979
I4807
sS'w'
p2980
I988
sS'arlington'
p2981
I4587
sS'syria'
p2982
I2613
sS'pilots'
p2983
I1459
sS'raptors'
p2984
I3552
sS'lawsuits'
p2985
I1641
sS'flood'
p2986
I4287
sS'major'
p2987
I195
sS'slipped'
p2988
I2526
sS'feel'
p2989
I2773
sS'radical'
p2990
I2183
sS'number'
p2991
I384
sS'welcome'
p2992
I3561
sS'feet'
p2993
I3032
sS'fierce'
p2994
I2879
sS'revolution'
p2995
I3515
sS'done'
p2996
I1690
sS'colombia'
p2997
I3251
sS'fees'
p2998
I2817
sS'kobe'
p2999
I2602
sS'miss'
p3000
I1210
sS'causing'
p3001
I2706
sS'villa'
p3002
I4983
sS'arbitration'
p3003
I4641
sS'passes'
p3004
I1626
sS'story'
p3005
I1648
sS'heads'
p3006
I2939
sS'jet'
p3007
I2128
sS'leading'
p3008
I388
sS'threatening'
p3009
I2040
sS'revive'
p3010
I4207
sS'least'
p3011
I203
sS'militant'
p3012
I1057
sS'station'
p3013
I868
sS'warming'
p3014
I1972
sS'storm'
p3015
I1080
sS'dealing'
p3016
I4328
sS'lab'
p3017
I4211
sS'master'
p3018
I4940
sS'nigeria'
p3019
I1633
sS'hundred'
p3020
I3918
sS'store'
p3021
I717
sS'summit'
p3022
I1875
sS'mini'
p3023
I4263
sS'selling'
p3024
I809
sS'kids'
p3025
I4621
sS'statement'
p3026
I1120
sS'relationship'
p3027
I3021
sS'behind'
p3028
I656
sS'exploded'
p3029
I1501
sS'patches'
p3030
I4810
sS'hotel'
p3031
I1577
sS'park'
p3032
I937
sS'safin'
p3033
I4415
sS'immediate'
p3034
I2940
sS'required'
p3035
I4048
sS'tivo'
p3036
I3919
sS'sam'
p3037
I4766
sS'wenger'
p3038
I2791
sS'part'
p3039
I327
sS'typhoon'
p3040
I2487
sS'cyber'
p3041
I3888
sS'doctors'
p3042
I1716
sS'ankara'
p3043
I4639
sS'believe'
p3044
I1443
sS'percentage'
p3045
I4154
sS'reliever'
p3046
I4290
sS'king'
p3047
I1541
sS'kind'
p3048
I2248
sS'b'
p3049
I488
sS'rebound'
p3050
I3776
sS'iranian'
p3051
I2569
sS'double'
p3052
I996
sS'heavyweight'
p3053
I2646
sS'aims'
p3054
I3213
sS'ranging'
p3055
I3695
sS'recording'
p3056
I2239
sS'pennsylvania'
p3057
I3567
sS'determined'
p3058
I3450
sS'marriage'
p3059
I4784
sS'supposed'
p3060
I3283
sS'toward'
p3061
I865
sS'ousted'
p3062
I2835
sS'militiamen'
p3063
I4821
sS'terrell'
p3064
I4751
sS'sentenced'
p3065
I2421
sS'charlotte'
p3066
I2816
sS'76'
p3067
I4374
sS'strengthen'
p3068
I3662
sS'imports'
p3069
I3218
sS'unusual'
p3070
I3721
sS'philippine'
p3071
I4107
sS'chechnya'
p3072
I3565
sS'pornography'
p3073
I4642
sS'contest'
p3074
I3441
sS'succeed'
p3075
I3475
sS'ambitious'
p3076
I4023
sS'rushing'
p3077
I3396
sS'orders'
p3078
I1819
sS'vulnerable'
p3079
I4102
sS'option'
p3080
I2258
sS'sell'
p3081
I674
sS'mountain'
p3082
I3016
sS'built'
p3083
I1229
sS'vulnerabilities'
p3084
I4086
sS'self'
p3085
I2294
sS'trapped'
p3086
I4013
sS'scotland'
p3087
I2233
sS'officers'
p3088
I2064
sS'port'
p3089
I2434
sS'also'
p3090
I382
sS'without'
p3091
I520
sS'build'
p3092
I1027
sS'finding'
p3093
I1858
sS'toy'
p3094
I4238
sS'province'
p3095
I1514
sS'play'
p3096
I348
sS'added'
p3097
I999
sS'electric'
p3098
I2210
sS'retired'
p3099
I2708
sS'warnings'
p3100
I2994
sS'singles'
p3101
I3893
sS'quote'
p3102
I404
sS'victim'
p3103
I3787
sS'english'
p3104
I1667
sS'reach'
p3105
I810
sS'chart'
p3106
I1823
sS'77'
p3107
I3847
sS'most'
p3108
I140
sS'virus'
p3109
I1407
sS'hired'
p3110
I2826
sS'shareholder'
p3111
I2971
sS'plan'
p3112
I308
sS'significant'
p3113
I1668
sS'70'
p3114
I2043
sS'services'
p3115
I257
sS'seasons'
p3116
I2399
sS'extremely'
p3117
I4924
sS'approved'
p3118
I932
sS'convoy'
p3119
I3095
sS'stands'
p3120
I3150
sS'salary'
p3121
I4788
sS'equatorial'
p3122
I3465
sS'wreckage'
p3123
I4702
sS'dealers'
p3124
I3755
sS'mobile'
p3125
I272
sS'clear'
p3126
I1123
sS'sometimes'
p3127
I3083
sS'cover'
p3128
I2561
sS'hamid'
p3129
I1744
sS'concessions'
p3130
I3797
sS'timberwolves'
p3131
I4911
sS'optical'
p3132
I4721
sS'ruud'
p3133
I4957
sS'bodies'
p3134
I1963
sS'clean'
p3135
I3543
sS'jordan'
p3136
I2830
sS'barrel'
p3137
I661
sS'usual'
p3138
I4057
sS'microsoft'
p3139
I119
sS'lying'
p3140
I3959
sS'joining'
p3141
I2475
sS'sector'
p3142
I1348
sS'thomas'
p3143
I2380
sS'multimedia'
p3144
I4516
sS'golf'
p3145
I1216
sS'rebels'
p3146
I887
sS'gold'
p3147
I372
sS'gates'
p3148
I2457
sS'defended'
p3149
I3290
sS'relatively'
p3150
I3793
sS'nasdaq'
p3151
I931
sS'session'
p3152
I1433
sS'businesses'
p3153
I873
sS'die'
p3154
I4028
sS'jury'
p3155
I2253
sS'miller'
p3156
I2801
sS'defender'
p3157
I3504
sS'lowe'
p3158
I4922
sS'font'
p3159
I635
sS'fine'
p3160
I2309
sS'find'
p3161
I830
sS'occupation'
p3162
I4817
sS'impact'
p3163
I1517
sS'cell'
p3164
I820
sS'giant'
p3165
I236
sS'lebanese'
p3166
I3956
sS'regulations'
p3167
I4537
sS'northern'
p3168
I500
sS'justice'
p3169
I1205
sS'writes'
p3170
I2623
sS'writer'
p3171
I2847
sS'distributed'
p3172
I4796
sS'muqtada'
p3173
I4275
sS'penalty'
p3174
I3307
sS'failed'
p3175
I781
sS'flights'
p3176
I1986
sS'wayne'
p3177
I2085
sS'pretty'
p3178
I3342
sS'equity'
p3179
I2579
sS'encouraged'
p3180
I4898
sS'8'
p3181
I319
sS'cuba'
p3182
I2324
sS'giants'
p3183
I750
sS'begins'
p3184
I2559
sS'his'
p3185
I31
sS'hit'
p3186
I266
sS'gains'
p3187
I940
sS'permission'
p3188
I3880
sS'luke'
p3189
I4634
sS'banned'
p3190
I2539
sS'express'
p3191
I1604
sS'financing'
p3192
I2983
sS'trees'
p3193
I3839
sS'cheaper'
p3194
I3864
sS'famous'
p3195
I2792
sS'capsule'
p3196
I2934
sS'grew'
p3197
I1653
sS'5,000'
p3198
I4213
sS'ninth'
p3199
I1729
sS'theft'
p3200
I2353
sS'reporters'
p3201
I2963
sS'during'
p3202
I202
sS'sunni'
p3203
I2670
sS'him'
p3204
I256
sS'jeanne'
p3205
I2795
sS'aristide'
p3206
I4657
sS'resolve'
p3207
I2701
sS'collapsed'
p3208
I3970
sS'doubled'
p3209
I2228
sS'posting'
p3210
I3841
sS'banking'
p3211
I1670
sS'orcl'
p3212
I3035
sS'mistakes'
p3213
I4538
sS'common'
p3214
I1695
sS'activity'
p3215
I1915
sS'switzerland'
p3216
I3193
sS'x'
p3217
I1512
sS'peak'
p3218
I4021
sS'river'
p3219
I3034
sS'crm'
p3220
I3520
sS'omar'
p3221
I4467
sS'set'
p3222
I217
sS'art'
p3223
I3226
sS'opposed'
p3224
I4549
sS'adopt'
p3225
I4444
sS'sep'
p3226
I3929
sS'throwing'
p3227
I3331
sS'intelligence'
p3228
I1415
sS'activists'
p3229
I3677
sS'uses'
p3230
I3125
sS'persuade'
p3231
I4255
sS'sex'
p3232
I2166
sS'manning'
p3233
I2242
sS'see'
p3234
I727
sS'defense'
p3235
I561
sS'sec'
p3236
I4131
sS'are'
p3237
I39
sS'sea'
p3238
I1723
sS'polish'
p3239
I4555
sS'tender'
p3240
I4340
sS'close'
p3241
I457
sS'11th'
p3242
I3850
sS'ebay'
p3243
I1947
sS'branson'
p3244
I3865
sS'arm'
p3245
I1885
sS'declined'
p3246
I1967
sS'feared'
p3247
I3039
sS'regulator'
p3248
I3237
sS'threats'
p3249
I1896
sS'expert'
p3250
I3376
sS'visiting'
p3251
I2385
sS'movie'
p3252
I1335
sS'century'
p3253
I1491
sS'leg'
p3254
I2516
sS'electoral'
p3255
I3782
sS'fans'
p3256
I637
sS'won'
p3257
I237
sS'various'
p3258
I3588
sS'affairs'
p3259
I3386
sS'consecutive'
p3260
I1187
sS'conditions'
p3261
I1857
sS'corruption'
p3262
I2574
sS'favor'
p3263
I3154
sS'steelers'
p3264
I2694
sS'available'
p3265
I911
sS'seeded'
p3266
I2243
sS'korea'
p3267
I615
sS'recently'
p3268
I1133
sS'creating'
p3269
I2272
sS'missing'
p3270
I1036
sS'targeted'
p3271
I2964
sS'sold'
p3272
I933
sS'attention'
p3273
I2032
sS'ravaged'
p3274
I3955
sS'observers'
p3275
I3962
sS'aircraft'
p3276
I1195
sS'ranked'
p3277
I998
sS'coffee'
p3278
I4485
sS'opposition'
p3279
I747
sS'franchise'
p3280
I2355
sS'dividend'
p3281
I3762
sS'ac'
p3282
I3493
sS'bronze'
p3283
I3280
sS'ads'
p3284
I2912
sS'league'
p3285
I167
sS'c'
p3286
I1083
sS'feeling'
p3287
I4030
sS'last'
p3288
I66
sS'license'
p3289
I3534
sS'restaurant'
p3290
I4744
sS'phishing'
p3291
I3894
sS'treated'
p3292
I4618
sS'annual'
p3293
I869
sS'foreign'
p3294
I378
sS'sensitive'
p3295
I4026
sS'connection'
p3296
I2462
sS'became'
p3297
I1121
sS'moments'
p3298
I4194
sS'focused'
p3299
I2673
sS'interactive'
p3300
I4823
sS'whole'
p3301
I3008
sS'finds'
p3302
I3622
sS'baltimore'
p3303
I1502
sS'yukos'
p3304
I1285
sS'yards'
p3305
I730
sS'nextel'
p3306
I1468
sS'point'
p3307
I686
sS'reasons'
p3308
I2796
sS'sky'
p3309
I2629
sS'loan'
p3310
I3670
sS'northeastern'
p3311
I3185
sS'sweep'
p3312
I2854
sS'community'
p3313
I1488
sS'chipmaker'
p3314
I4065
sS'improper'
p3315
I4068
sS'tennessee'
p3316
I1934
sS'agents'
p3317
I2690
sS'linux'
p3318
I580
sS'doping'
p3319
I2328
sS'throughout'
p3320
I2332
sS'expensive'
p3321
I3553
sS'bolster'
p3322
I4150
sS'decline'
p3323
I1334
sS'atmosphere'
p3324
I3786
sS'devil'
p3325
I3979
sS'java'
p3326
I2135
sS'raise'
p3327
I1328
sS'pt'
p3328
I2062
sS'monthly'
p3329
I2996
sS'create'
p3330
I1065
sS'outstanding'
p3331
I4671
sS'political'
p3332
I517
sS'due'
p3333
I525
sS'strategy'
p3334
I1599
sS'hitting'
p3335
I2326
sS'rivals'
p3336
I939
sS'secret'
p3337
I2237
sS'pa'
p3338
I3155
sS'lucrative'
p3339
I4184
sS'ireland'
p3340
I1102
sS'pistons'
p3341
I2794
sS'clinical'
p3342
I4148
sS'orioles'
p3343
I3881
sS'territory'
p3344
I2688
sS'meeting'
p3345
I521
sS'labour'
p3346
I2359
sS'pm'
p3347
I1669
sS'firm'
p3348
I369
sS'dialogue'
p3349
I4543
sS'lived'
p3350
I3513
sS'flight'
p3351
I943
sS'champion'
p3352
I484
sS'gay'
p3353
I4835
sS'boy'
p3354
I2432
sS'fire'
p3355
I769
sS'gas'
p3356
I788
sS'great'
p3357
I827
sS'imac'
p3358
I4179
sS'gap'
p3359
I3253
sS'anthony'
p3360
I2802
sS'fund'
p3361
I760
sS'38'
p3362
I2152
sS'lives'
p3363
I2362
sS'bidding'
p3364
I3941
sS'demand'
p3365
I472
sS'prices'
p3366
I115
sS'despite'
p3367
I367
sS'revenge'
p3368
I4747
sS'poised'
p3369
I2573
sS'packers'
p3370
I2782
sS'plants'
p3371
I2932
sS'trojan'
p3372
I4539
sS'georgia'
p3373
I2006
sS'look'
p3374
I736
sS'raw'
p3375
I4547
sS'solid'
p3376
I2246
sS'straight'
p3377
I554
sS'bill'
p3378
I614
sS'elections'
p3379
I585
sS'governor'
p3380
I2360
sS'kodak'
p3381
I3166
sS'pace'
p3382
I1306
sS'while'
p3383
I194
sS'replaced'
p3384
I3462
sS'smart'
p3385
I2126
sS'32'
p3386
I2212
sS'fun'
p3387
I4669
sS'shake'
p3388
I4352
sS'guide'
p3389
I4022
sS'pack'
p3390
I1902
sS'real'
p3391
I655
sS'larger'
p3392
I2657
sS'hoping'
p3393
I1291
sS'voters'
p3394
I1237
sS'cents'
p3395
I1833
sS'owen'
p3396
I3989
sS'motors'
p3397
I1698
sS'alaska'
p3398
I4897
sS'disappointing'
p3399
I2044
sS'rio'
p3400
I4982
sS'itself'
p3401
I1399
sS'triple'
p3402
I3946
sS'ready'
p3403
I1030
sS'busch'
p3404
I3361
sS'34'
p3405
I2005
sS'chase'
p3406
I2412
sS'raiders'
p3407
I3550
sS'italy'
p3408
I1165
sS'spectacular'
p3409
I4383
sS'suggests'
p3410
I2779
sS'improvement'
p3411
I3591
sS'telephony'
p3412
I4455
sS'read'
p3413
I2406
sS'slobodan'
p3414
I4989
sS'complaints'
p3415
I4487
sS'virtually'
p3416
I4210
sS'widely'
p3417
I1998
sS'grand'
p3418
I623
sS'9'
p3419
I394
sS'survey'
p3420
I910
sS'federer'
p3421
I2296
sS'dozen'
p3422
I2293
sS'conflict'
p3423
I1549
sS'higher'
p3424
I316
sS'development'
p3425
I794
sS'qualifier'
p3426
I2736
sS'used'
p3427
I389
sS'lawyers'
p3428
I2008
sS'ratings'
p3429
I3215
sS'pullout'
p3430
I4953
sS'blair'
p3431
I1062
sS'yesterday'
p3432
I67
sS'sym'
p3433
I2096
sS'amd'
p3434
I1508
sS'harrington'
p3435
I4764
sS'moment'
p3436
I2644
sS'levels'
p3437
I1598
sS'arrived'
p3438
I1403
sS'user'
p3439
I2286
sS'robust'
p3440
I3519
sS'brussels'
p3441
I1692
sS'fannie'
p3442
I2512
sS'climb'
p3443
I4326
sS'euro'
p3444
I859
sS'dark'
p3445
I3779
sS'lower'
p3446
I492
sS'task'
p3447
I2905
sS'barry'
p3448
I1839
sS'database'
p3449
I2322
sS'salvation'
p3450
I4741
sS'poland'
p3451
I4027
sS'alleging'
p3452
I4282
sS'garcia'
p3453
I3667
sS'spent'
p3454
I1390
sS'analysis'
p3455
I3165
sS'person'
p3456
I1787
sS'priced'
p3457
I3434
sS'edge'
p3458
I2048
sS'taipei'
p3459
I3863
sS'withdraw'
p3460
I2090
sS'swiss'
p3461
I2280
sS'organization'
p3462
I1075
sS'spend'
p3463
I2041
sS'yankees'
p3464
I597
sS'coup'
p3465
I2709
sS'mourinho'
p3466
I4407
sS"shi'ite"
p3467
I4183
sS'settlements'
p3468
I3853
sS'removed'
p3469
I3704
sS'competitive'
p3470
I2622
sS'quarters'
p3471
I3932
sS'risks'
p3472
I3638
sS'belgium'
p3473
I3616
sS'shape'
p3474
I4247
sS'atomic'
p3475
I1766
sS'questions'
p3476
I1586
sS'world'
p3477
I56
sS'catcher'
p3478
I4832
sS'love'
p3479
I2583
sS'taiwan'
p3480
I1462
sS'prince'
p3481
I1852
sS'wage'
p3482
I3693
sS'cut'
p3483
I370
sS'acquiring'
p3484
I4221
sS'researcher'
p3485
I4908
sS'cup'
p3486
I219
sS'workers'
p3487
I453
sS'deputy'
p3488
I2206
sS'education'
p3489
I2557
sS'contractor'
p3490
I4005
sS'signals'
p3491
I4476
sS'source'
p3492
I454
sS'uncertainty'
p3493
I4040
sS'internal'
p3494
I2288
sS'parents'
p3495
I2814
sS'exhibition'
p3496
I3431
sS'sydney'
p3497
I1376
sS'snap'
p3498
I4896
sS'ballots'
p3499
I3609
sS'remaining'
p3500
I1990
sS'surprised'
p3501
I4024
sS'chairman'
p3502
I559
sS'bin'
p3503
I2271
sS'customers'
p3504
I471
sS'australia'
p3505
I332
sS'march'
p3506
I1476
sS'doubleclick'
p3507
I3560
sS'emergency'
p3508
I1864
sS'demands'
p3509
I1810
sS'big'
p3510
I299
sS'bid'
p3511
I310
sS'dubai'
p3512
I3773
sS'lycos'
p3513
I4051
sS'game'
p3514
I93
sS'quest'
p3515
I3542
sS'foreigners'
p3516
I3783
sS'bit'
p3517
I1651
sS'jacksonville'
p3518
I3597
sS'projects'
p3519
I2774
sS'formal'
p3520
I3362
sS'mails'
p3521
I4598
sS'imposed'
p3522
I3132
sS'd'
p3523
I1054
sS'semi'
p3524
I2189
sS'message'
p3525
I1649
sS'kennedy'
p3526
I3540
sS'toyota'
p3527
I3234
sS'manny'
p3528
I4824
sS'heart'
p3529
I886
sS'communications'
p3530
I579
sS'continue'
p3531
I874
sS'surging'
p3532
I3537
sS'ivan'
p3533
I1060
sS'healthy'
p3534
I3566
sS'privately'
p3535
I2752
sS'google'
p3536
I309
sS'often'
p3537
I1652
sS'senate'
p3538
I1466
sS'spring'
p3539
I2612
sS'creation'
p3540
I3224
sS'some'
p3541
I128
sS'back'
p3542
I132
sS'metres'
p3543
I4833
sS'delegation'
p3544
I4279
sS'ailing'
p3545
I3400
sS'strongest'
p3546
I4321
sS'economic'
p3547
I360
sS'palm'
p3548
I2955
sS'pricing'
p3549
I3942
sS'sight'
p3550
I4300
sS'cd'
p3551
I4434
sS'sprint'
p3552
I1435
sS"'ve"
p3553
I2875
sS'preparing'
p3554
I1844
sS'delivered'
p3555
I2563
sS'scale'
p3556
I2767
sS'serena'
p3557
I3298
sS'broadband'
p3558
I1358
sS'imminent'
p3559
I4674
sS'decision'
p3560
I528
sS'thanksgiving'
p3561
I3170
sS'tsunami'
p3562
I3697
sS'per'
p3563
I424
sS'modest'
p3564
I3750
sS'eliminate'
p3565
I3949
sS'slash'
p3566
I4409
sS'installed'
p3567
I4325
sS'either'
p3568
I2302
sS'be'
p3569
I36
sS'beleaguered'
p3570
I3968
sS'measures'
p3571
I2500
sS'run'
p3572
I255
sS'ba'
p3573
I4557
sS'professionals'
p3574
I3984
sS'300'
p3575
I1901
sS'spaceshipone'
p3576
I3391
sS'martin'
p3577
I1568
sS'continuing'
p3578
I1970
sS'use'
p3579
I395
sS'refused'
p3580
I2261
sS'bt'
p3581
I4161
sS'step'
p3582
I746
sS'assists'
p3583
I3854
sS'hostages'
p3584
I1720
sS'output'
p3585
I1748
sS'usc'
p3586
I4672
sS'article'
p3587
I3657
sS'bayern'
p3588
I4910
sS'by'
p3589
I24
sS'pervez'
p3590
I2200
sS'roundup'
p3591
I2937
sS'freddie'
p3592
I4667
sS'pipeline'
p3593
I3206
sS'goods'
p3594
I1910
sS'anything'
p3595
I2469
sS'extending'
p3596
I3014
sS'pfizer'
p3597
I3277
sS'refugees'
p3598
I3807
sS'completing'
p3599
I3675
sS'prove'
p3600
I2678
sS'75'
p3601
I2084
sS'melbourne'
p3602
I3407
sS'range'
p3603
I1099
sS'involving'
p3604
I2267
sS'militia'
p3605
I2601
sS'alert'
p3606
I3780
sS'messaging'
p3607
I2348
sS'replacement'
p3608
I3411
sS'idc'
p3609
I4008
sS'block'
p3610
I1707
sS'72'
p3611
I3906
sS'seeing'
p3612
I3659
sS'clinton'
p3613
I3460
sS'colorado'
p3614
I1689
sS'intc'
p3615
I3239
sS'terrorists'
p3616
I1944
sS'helvetica'
p3617
I1247
sS'into'
p3618
I75
sS'within'
p3619
I726
sS'retailer'
p3620
I766
sS'awaited'
p3621
I1694
sS'servers'
p3622
I1326
sS'martinez'
p3623
I2176
sS'nothing'
p3624
I1642
sS'because'
p3625
I265
sS'manned'
p3626
I3961
sS'steven'
p3627
I4171
sS'factor'
p3628
I4828
sS'france'
p3629
I576
sS'pentagon'
p3630
I3243
sS'physical'
p3631
I4305
sS'bankruptcy'
p3632
I702
sS'minority'
p3633
I3582
sS'bangladesh'
p3634
I2390
sS'spam'
p3635
I1092
sS'spending'
p3636
I856
sS'apparently'
p3637
I1700
sS'question'
p3638
I1311
sS'fast'
p3639
I1263
sS'u2'
p3640
I4053
sS'pharmaceuticals'
p3641
I4264
sS'vendors'
p3642
I2409
sS'doubt'
p3643
I2391
sS'infected'
p3644
I4533
sS'soared'
p3645
I3194
sS'dodgers'
p3646
I2173
sS'nikkei'
p3647
I2138
sS'forward'
p3648
I1066
sS'perform'
p3649
I4715
sS'wearing'
p3650
I4119
sS'78'
p3651
I3482
sS'mounting'
p3652
I4803
sS'opens'
p3653
I4278
sS'vienna'
p3654
I2150
sS'files'
p3655
I1994
sS'himself'
p3656
I1323
sS'buyout'
p3657
I4052
sS'elsewhere'
p3658
I4137
sS'pounded'
p3659
I3583
sS'southampton'
p3660
I4397
sS'jewish'
p3661
I2197
sS'atop'
p3662
I3829
sS'slump'
p3663
I4877
sS'hoped'
p3664
I3149
sS'solaris'
p3665
I2918
sS'boys'
p3666
I4353
sS'serif'
p3667
I1250
sS'larry'
p3668
I2140
sS'atlantic'
p3669
I1802
sS'pacific'
p3670
I1538
sS'delta'
p3671
I1314
sS'hopes'
p3672
I700
sS'subsidiary'
p3673
I2722
sS'line'
p3674
I504
sS'junior'
p3675
I3934
sS'raising'
p3676
I1470
sS'posted'
p3677
I601
sS'info'
p3678
I1874
sS'jonathan'
p3679
I3715
sS'mavericks'
p3680
I4686
sS'platforms'
p3681
I4580
sS'up'
p3682
I57
sS'us'
p3683
I40
sS'liberty'
p3684
I4778
sS'planet'
p3685
I1866
sS'windows'
p3686
I362
sS'un'
p3687
I478
sS'exploration'
p3688
I4236
sS'prosecutor'
p3689
I3476
sS'uk'
p3690
I430
sS'planes'
p3691
I2525
sS'embattled'
p3692
I2508
sS'chelsea'
p3693
I1395
sS'called'
p3694
I343
sS'bell'
p3695
I2240
sS'psft'
p3696
I3064
sS'curt'
p3697
I2656
sS'inch'
p3698
I3229
sS'associated'
p3699
I1409
sS'adults'
p3700
I4709
sS'chad'
p3701
I3320
sS'introducing'
p3702
I4704
sS'stripped'
p3703
I4042
sS'influence'
p3704
I3305
sS'commissioner'
p3705
I1793
sS'doesn'
p3706
I2371
sS'single'
p3707
I1087
sS'warning'
p3708
I1091
sS'curb'
p3709
I3649
sS'guidance'
p3710
I4527
sS'rally'
p3711
I870
sS'rupert'
p3712
I4047
sS'treaty'
p3713
I4256
sS'arsene'
p3714
I2999
sS'traditional'
p3715
I2050
sS'bat'
p3716
I4893
sS'nepal'
p3717
I3736
sS'tentative'
p3718
I3385
sS'blade'
p3719
I4372
sS'employment'
p3720
I3274
sS'peace'
p3721
I522
sS'fears'
p3722
I1051
sS'thinks'
p3723
I4556
sS'vendor'
p3724
I2342
sS'application'
p3725
I1147
sS'politicians'
p3726
I3601
sS'docomo'
p3727
I3628
sS'electrical'
p3728
I4126
sS'income'
p3729
I1539
sS'department'
p3730
I486
sS'manhattan'
p3731
I4233
sS'dale'
p3732
I4955
sS'draw'
p3733
I1400
sS'users'
p3734
I347
sS'reportedly'
p3735
I1880
sS'gross'
p3736
I4562
sS'favourite'
p3737
I4734
sS'kansas'
p3738
I1393
sS'problems'
p3739
I924
sS'resign'
p3740
I4451
sS'prepared'
p3741
I1745
sS'helping'
p3742
I1411
sS'militants'
p3743
I616
sS'allowing'
p3744
I2116
sS'prepares'
p3745
I4797
sS'competitor'
p3746
I4348
sS'song'
p3747
I3214
sS'sides'
p3748
I2215
sS'ago'
p3749
I293
sS'bases'
p3750
I4143
sS'lane'
p3751
I4943
sS'land'
p3752
I1850
sS'e'
p3753
I458
sS'vice'
p3754
I1280
sS'dvd'
p3755
I1220
sS'age'
p3756
I1931
sS'vehicles'
p3757
I2114
sS'holes'
p3758
I2797
sS'orbit'
p3759
I3116
sS'walked'
p3760
I3598
sS'2002'
p3761
I1510
sS'2003'
p3762
I1009
sS'2000'
p3763
I1520
sS'nasa'
p3764
I571
sS'2006'
p3765
I1003
sS'2007'
p3766
I3235
sS'2004'
p3767
I136
sS'2005'
p3768
I440
sS'oracle'
p3769
I475
sS'fresh'
p3770
I980
sS'2008'
p3771
I3199
sS'standoff'
p3772
I4472
sS'buffalo'
p3773
I3141
sS'having'
p3774
I1029
sS'once'
p3775
I704
sS'gt'
p3776
I48
sS'jason'
p3777
I1418
sS'issued'
p3778
I1231
sS'results'
p3779
I540
sS'astronauts'
p3780
I2739
sS'existing'
p3781
I3080
sS'steve'
p3782
I1001
sS'mosul'
p3783
I3148
sS'broader'
p3784
I4902
sS'served'
p3785
I4314
sS'go'
p3786
I380
sS'particularly'
p3787
I3587
sS'gm'
p3788
I3685
sS'conservative'
p3789
I3258
sS'centers'
p3790
I3980
sS'issues'
p3791
I1124
sS'seemed'
p3792
I2468
sS'mitsubishi'
p3793
I4961
sS'stunned'
p3794
I4808
sS'turkish'
p3795
I2687
sS'concerned'
p3796
I3133
sS'shanghai'
p3797
I2868
sS'mosque'
p3798
I2997
sS'young'
p3799
I1007
sS'send'
p3800
I1251
sS'netscape'
p3801
I3505
sS'citing'
p3802
I1128
sS'84'
p3803
I3310
sS'stable'
p3804
I4826
sS'quarterly'
p3805
I568
sS'suite'
p3806
I2995
sS'maryland'
p3807
I2821
sS'include'
p3808
I1751
sS'friendly'
p3809
I2544
sS'sent'
p3810
I905
sS'lunar'
p3811
I4163
sS'g5'
p3812
I4629
sS'retire'
p3813
I3354
sS'seized'
p3814
I2363
sS'garden'
p3815
I3990
sS'tribunal'
p3816
I4390
sS'tickets'
p3817
I3909
sS'listed'
p3818
I3731
sS'continues'
p3819
I1530
sS'miners'
p3820
I4084
sS'wave'
p3821
I2163
sS'unbeaten'
p3822
I2181
sS'soyuz'
p3823
I4635
sS'putting'
p3824
I1876
sS'rover'
p3825
I4691
sS'cellular'
p3826
I3157
sS'telling'
p3827
I3488
sS'cocaine'
p3828
I4827
sS'clemens'
p3829
I3313
sS'continued'
p3830
I779
sS'attendants'
p3831
I4752
sS'bryant'
p3832
I2167
sS'entire'
p3833
I2187
sS'eased'
p3834
I2184
sS'magic'
p3835
I3806
sS'sparked'
p3836
I2987
sS'positions'
p3837
I2799
sS'explosions'
p3838
I3066
sS'f'
p3839
I1979
sS'michael'
p3840
I493
sS'eve'
p3841
I3230
sS'ryan'
p3842
I2904
sS'murdoch'
p3843
I3817
sS'try'
p3844
I970
sS'threat'
p3845
I990
sS'race'
p3846
I539
sS'demonstrated'
p3847
I4519
sS'dealt'
p3848
I4772
sS'148'
p3849
I4904
sS'settlers'
p3850
I4176
sS'ride'
p3851
I3948
sS'shaquille'
p3852
I4239
sS'bernie'
p3853
I4209
sS'concluded'
p3854
I3838
sS'strongly'
p3855
I4606
sS'smaller'
p3856
I2007
sS'carter'
p3857
I2859
sS'scientist'
p3858
I3002
sS'rivers'
p3859
I4906
sS'jump'
p3860
I1531
sS'video'
p3861
I432
sS'picked'
p3862
I2291
sS'download'
p3863
I1564
sS'cartel'
p3864
I4360
sS'vince'
p3865
I4503
sS'makers'
p3866
I1369
sS'index'
p3867
I1764
sS'plays'
p3868
I2811
sS'business'
p3869
I146
sS'chicago'
p3870
I406
sS'giving'
p3871
I971
sS'falcons'
p3872
I4735
sS'schedule'
p3873
I2273
sS'expressed'
p3874
I2158
sS'networks'
p3875
I713
sS'access'
p3876
I689
sS'paying'
p3877
I2499
sS'waiting'
p3878
I2476
sS'indian'
p3879
I828
sS'twins'
p3880
I2478
sS'capital'
p3881
I446
sS'firms'
p3882
I1272
sS'3g'
p3883
I3046
sS'bird'
p3884
I2358
sS'exercise'
p3885
I4738
sS'thin'
p3886
I3312
sS'body'
p3887
I1038
sS'led'
p3888
I414
sS'lee'
p3889
I2377
sS'elect'
p3890
I4969
sS'exchange'
p3891
I621
sS'bangalore'
p3892
I3159
sS'mistake'
p3893
I4652
sS'gathered'
p3894
I2917
sS'pushing'
p3895
I2418
sS'commercial'
p3896
I1145
sS'jointly'
p3897
I3943
sS'adrian'
p3898
I2789
sS'highly'
p3899
I2392
sS'following'
p3900
I396
sS'northeast'
p3901
I2704
sS'let'
p3902
I1043
sS'others'
p3903
I791
sS'luis'
p3904
I4505
sS'kidnapped'
p3905
I1233
sS'suggest'
p3906
I3887
sS'ukraine'
p3907
I1969
sS'39'
p3908
I12
sS'didn'
p3909
I1778
sS'talent'
p3910
I4700
sS'copyright'
p3911
I2241
sS'metro'
p3912
I4815
sS'p2pnet'
p3913
I4850
sS'technical'
p3914
I2177
sS'involved'
p3915
I1859
sS'31'
p3916
I1286
sS'30'
p3917
I419
sS'37'
p3918
I2856
sS'36'
p3919
I420
sS'35'
p3920
I1200
sS'leaving'
p3921
I1127
sS'harvard'
p3922
I4066
sS'merger'
p3923
I1287
sS'escaped'
p3924
I4375
sS'products'
p3925
I450
sS'ortiz'
p3926
I4341
sS'defeat'
p3927
I1042
sS'kathmandu'
p3928
I4336
sS'opinion'
p3929
I3421
sS'residents'
p3930
I1616
sS'gene'
p3931
I4038
sS'makes'
p3932
I1259
sS'maker'
p3933
I199
sS'patents'
p3934
I3254
sS'reds'
p3935
I3456
sS'named'
p3936
I919
sS'firefox'
p3937
I1805
sS'apple'
p3938
I410
sS'arafat'
p3939
I682
sS'egypt'
p3940
I1658
sS'win'
p3941
I150
sS'manage'
p3942
I3098
sS'handling'
p3943
I4583
sS'private'
p3944
I878
sS'mariners'
p3945
I2887
sS'affected'
p3946
I4302
sS'austria'
p3947
I2823
sS'weaker'
p3948
I2732
sS'names'
p3949
I2068
sS'motor'
p3950
I1344
sS'scandal'
p3951
I1297
sS'greg'
p3952
I4857
sS'tools'
p3953
I1578
sS'gateway'
p3954
I4284
sS'standing'
p3955
I2969
sS'confidence'
p3956
I1299
sS'andreas'
p3957
I4393
sS'from'
p3958
I29
sS'kenneth'
p3959
I2946
sS'usa'
p3960
I2419
sS'remains'
p3961
I1252
sS'illegal'
p3962
I1255
sS'ministers'
p3963
I1659
sS'next'
p3964
I110
sS'few'
p3965
I600
sS'camera'
p3966
I2260
sS'estimated'
p3967
I2692
sS'vehicle'
p3968
I1962
sS'eagles'
p3969
I1824
sS'themselves'
p3970
I1606
sS'panel'
p3971
I1612
sS'subsidies'
p3972
I4017
sS'belgian'
p3973
I4075
sS'sort'
p3974
I4441
sS'parliament'
p3975
I1261
sS'formally'
p3976
I2863
sS'journalists'
p3977
I2611
sS'upcoming'
p3978
I1780
sS'started'
p3979
I1056
sS'becomes'
p3980
I4273
sS'patrol'
p3981
I4973
sS'freedom'
p3982
I3610
sS'benchmark'
p3983
I4710
sS'occurred'
p3984
I4664
sS'bright'
p3985
I4379
sS'missile'
p3986
I1661
sS'trail'
p3987
I3563
sS'carrying'
p3988
I1845
sS'israelis'
p3989
I3525
sS'nascar'
p3990
I1925
sS'sharply'
p3991
I1265
sS'longhorn'
p3992
I4064
sS'baby'
p3993
I4095
sS'departure'
p3994
I4514
sS'rivalry'
p3995
I4367
sS'appointed'
p3996
I2591
sS'starter'
p3997
I3260
sS'women'
p3998
I577
sS'customer'
p3999
I1811
sS'majority'
p4000
I1699
sS'account'
p4001
I2398
sS'rice'
p4002
I4277
sS'animals'
p4003
I3947
sS'announcing'
p4004
I2270
sS'sanctions'
p4005
I1546
sS'this'
p4006
I50
sS'islamabad'
p4007
I1884
sS'challenge'
p4008
I1046
sS'stations'
p4009
I3024
sS'insists'
p4010
I4462
sS'stroke'
p4011
I2031
sS'jailed'
p4012
I3005
sS'column'
p4013
I4568
sS'client'
p4014
I2861
sS'rooney'
p4015
I2738
sS'of'
p4016
I7
sS'meet'
p4017
I825
sS'closing'
p4018
I1999
sS'battered'
p4019
I2976
sS'control'
p4020
I671
sS'beijing'
p4021
I815
sS'slid'
p4022
I3938
sS'sri'
p4023
I2268
sS'tap'
p4024
I3524
sS'council'
p4025
I802
sS'links'
p4026
I2208
sS'providers'
p4027
I2148
sS'process'
p4028
I1004
sS'trafford'
p4029
I3043
sS'tax'
p4030
I697
sS'pieces'
p4031
I4976
sS'high'
p4032
I135
sS'renewed'
p4033
I2078
sS'reserves'
p4034
I3584
sS'pulling'
p4035
I3895
sS'something'
p4036
I1380
sS'slip'
p4037
I4757
sS'sought'
p4038
I1846
sS'dominant'
p4039
I3156
sS'langer'
p4040
I4400
sS'rape'
p4041
I3892
sS'native'
p4042
I3444
sS'gamers'
p4043
I4576
sS'sir'
p4044
I1958
sS'united'
p4045
I91
sS'democracy'
p4046
I1891
sS'busy'
p4047
I2957
sS'six'
p4048
I273
sS'inaugural'
p4049
I4010
sS'hampshire'
p4050
I4460
sS'traders'
p4051
I1608
sS'brian'
p4052
I2098
sS'astronomers'
p4053
I3040
sS'forest'
p4054
I2438
sS'animal'
p4055
I4596
sS'instead'
p4056
I1254
sS'struggled'
p4057
I2764
sS'afp'
p4058
I176
sS'batting'
p4059
I4220
sS'stock'
p4060
I323
sS'profile'
p4061
I423
sS'parliamentary'
p4062
I3539
sS'buildings'
p4063
I3759
sS'honda'
p4064
I3663
sS'attend'
p4065
I4308
sS'clinch'
p4066
I4127
sS'watch'
p4067
I1413
sS'highs'
p4068
I1597
sS'samples'
p4069
I4984
sS'winners'
p4070
I3603
sS'tied'
p4071
I2638
sS'dc'
p4072
I3371
sS'chiefs'
p4073
I2793
sS'weighed'
p4074
I3708
sS'abuse'
p4075
I2384
sS'merrill'
p4076
I4266
sS'ethnic'
p4077
I4011
sS'ties'
p4078
I2143
sS'worried'
p4079
I2819
sS'engineering'
p4080
I2970
sS'bankrupt'
p4081
I2766
sS'boeing'
p4082
I1308
sS'light'
p4083
I1170
sS'counter'
p4084
I3580
sS'lines'
p4085
I1015
sS'robot'
p4086
I4459
sS'processor'
p4087
I1361
sS'chief'
p4088
I207
sS'advocates'
p4089
I4384
sS'doubleheader'
p4090
I4998
sS'allow'
p4091
I876
sS'software'
p4092
I108
sS'67'
p4093
I2731
sS'divided'
p4094
I4147
sS'fastest'
p4095
I1826
sS'houston'
p4096
I572
sS'boxing'
p4097
I2930
sS'infotype'
p4098
I2100
sS'closely'
p4099
I2497
sS'producer'
p4100
I1426
sS'kyoto'
p4101
I3533
sS'move'
p4102
I326
sS'disarm'
p4103
I4855
sS'quietly'
p4104
I3544
sS'meter'
p4105
I2674
sS'struggles'
p4106
I4253
sS'produced'
p4107
I2510
sS'alliance'
p4108
I1736
sS'including'
p4109
I289
sS'looks'
p4110
I1479
sS'mutu'
p4111
I4706
sS'artest'
p4112
I4521
sS'perfect'
p4113
I2463
sS'delay'
p4114
I1982
sS'strain'
p4115
I4952
sS'la'
p4116
I2238
sS'chosen'
p4117
I4054
sS'll'
p4118
I2911
sS'biotechnology'
p4119
I4749
sS'labor'
p4120
I890
sS'lt'
p4121
I49
sS'willing'
p4122
I3249
sS'marsh'
p4123
I2480
sS'choose'
p4124
I3982
sS'stalled'
p4125
I3486
sS'communication'
p4126
I4534
sS'orange'
p4127
I3042
sS'holiday'
p4128
I901
sS'sweden'
p4129
I2952
sS'pending'
p4130
I4849
sS'2012'
p4131
I4055
sS'puts'
p4132
I4742
sS'violating'
p4133
I4092
sS'crash'
p4134
I1920
sS'greater'
p4135
I2153
sS'dal'
p4136
I4619
sS'auto'
p4137
I1445
sS'dan'
p4138
I3164
sS'practice'
p4139
I1439
sS'earn'
p4140
I3242
sS'flew'
p4141
I3784
sS'toshiba'
p4142
I2485
sS'cutting'
p4143
I1548
sS'ferguson'
p4144
I2972
sS'hands'
p4145
I1709
sS'front'
p4146
I1242
sS'jaguar'
p4147
I4094
sS'republican'
p4148
I1319
sS'investor'
p4149
I232
sS'day'
p4150
I116
sS'presidential'
p4151
I354
sS'successor'
p4152
I2800
sS'worlds'
p4153
I2836
sS'masters'
p4154
I1506
sS'nfc'
p4155
I4873
sS'connected'
p4156
I4614
sS'mysterious'
p4157
I4205
sS'warned'
p4158
I598
sS'university'
p4159
I526
sS'nfl'
p4160
I892
sS'playoff'
p4161
I1447
sS'merge'
p4162
I3960
sS'slide'
p4163
I2852
sS'magnitude'
p4164
I4149
sS'rockets'
p4165
I2502
sS'fields'
p4166
I2572
sS'crossing'
p4167
I4716
sS'accounts'
p4168
I2600
sS'bills'
p4169
I2252
sS'nationals'
p4170
I4794
sS'warner'
p4171
I1571
sS'negotiate'
p4172
I4899
sS'mets'
p4173
I1917
sS'studios'
p4174
I2520
sS'map'
p4175
I4417
sS'doing'
p4176
I1995
sS'globe'
p4177
I3621
sS'parties'
p4178
I2056
sS'700'
p4179
I3500
sS'administrator'
p4180
I4934
sS'related'
p4181
I1045
sS'society'
p4182
I3810
sS'88'
p4183
I3395
sS'books'
p4184
I2207
sS'remove'
p4185
I3369
sS'measure'
p4186
I2920
sS'82'
p4187
I4355
sS'our'
p4188
I1052
sS'80'
p4189
I1827
sS'patch'
p4190
I2615
sS'86'
p4191
I2979
sS'maccentral'
p4192
I3891
sS'special'
p4193
I1094
sS'out'
p4194
I76
sS'matt'
p4195
I2564
sS'nick'
p4196
I3449
sS"'"
p4197
I297
sS'entertainment'
p4198
I1106
sS'rigging'
p4199
I4195
sS'announces'
p4200
I4228
sS'defend'
p4201
I3665
sS'investigate'
p4202
I4085
sS'islamist'
p4203
I4529
sS'ricky'
p4204
I3366
sS'critics'
p4205
I2683
sS'dominated'
p4206
I2289
sS'reputation'
p4207
I3924
sS'electronics'
p4208
I822
sS'yankee'
p4209
I3502
sS'calif'
p4210
I898
sS'waters'
p4211
I3368
sS'red'
p4212
I264
sS'architecture'
p4213
I4574
sS'shut'
p4214
I1976
sS'raises'
p4215
I4875
sS'pharmaceutical'
p4216
I3089
sS'spot'
p4217
I1475
sS'ipod'
p4218
I926
sS'withdrawal'
p4219
I2201
sS'transfer'
p4220
I3069
sS'embassy'
p4221
I1609
sS'release'
p4222
I413
sS'regulators'
p4223
I907
sS'please'
p4224
I4895
sS'york'
p4225
I68
sS'doubles'
p4226
I4743
sS'regulatory'
p4227
I2869
sS'van'
p4228
I2117
sS'comeback'
p4229
I2728
sS'tribal'
p4230
I4753
sS'resumed'
p4231
I4125
sS'hubble'
p4232
I4731
sS'yard'
p4233
I1419
sS'hostile'
p4234
I1241
sS'g'
p4235
I3338
sS'applications'
p4236
I1005
sS'dubbed'
p4237
I4108
sS'mortar'
p4238
I3795
sS'could'
p4239
I98
sS'rushed'
p4240
I2827
sS'florida'
p4241
I502
sS'confident'
p4242
I2882
sS'times'
p4243
I596
sS'counterpart'
p4244
I4232
sS'aren'
p4245
I4241
sS'49ers'
p4246
I4545
sS'notebook'
p4247
I3144
sS'shutout'
p4248
I4579
sS'ltd'
p4249
I645
sS'davis'
p4250
I1222
sS'retain'
p4251
I4018
sS'hussein'
p4252
I1911
sS'retail'
p4253
I944
sS'austin'
p4254
I4337
sS'museum'
p4255
I3792
sS'south'
p4256
I227
sS'mad'
p4257
I4883
sS'secured'
p4258
I4813
sS'pga'
p4259
I2129
sS'2,000'
p4260
I3972
sS'powerful'
p4261
I848
sS'scene'
p4262
I3240
sS'owned'
p4263
I1953
sS'philadelphia'
p4264
I929
sS'facility'
p4265
I3061
sS'improving'
p4266
I2410
sS'congo'
p4267
I2803
sS'hugo'
p4268
I3357
sS'owner'
p4269
I1518
sS'reached'
p4270
I764
sS'quality'
p4271
I2593
sS'earthquakes'
p4272
I3768
sS'nyse'
p4273
I1155
sS'legislative'
p4274
I4627
sS'sharon'
p4275
I1100
sS'bull'
p4276
I4507
sS'management'
p4277
I516
sS'swept'
p4278
I3474
sS'start'
p4279
I320
sS'bears'
p4280
I2107
sS'data'
p4281
I311
sS'flag'
p4282
I3927
sS'system'
p4283
I267
sS'relations'
p4284
I2336
sS'grow'
p4285
I2416
sS'priority'
p4286
I1927
sS'their'
p4287
I37
sS'attack'
p4288
I408
sS'650'
p4289
I4863
sS'ankle'
p4290
I2745
sS'pakistani'
p4291
I1565
sS'final'
p4292
I221
sS'interests'
p4293
I4070
sS'enforcement'
p4294
I3387
sS'ballot'
p4295
I3452
sS'shell'
p4296
I2756
sS'stars'
p4297
I1882
sS'viktor'
p4298
I4001
sS'academy'
p4299
I4714
sS'completed'
p4300
I1646
sS'acquire'
p4301
I1281
sS'offseason'
p4302
I4995
sS'veterans'
p4303
I4864
sS'environmental'
p4304
I2407
sS'miguel'
p4305
I4920
sS'mclennan'
p4306
I2763
sS'july'
p4307
I1144
sS'elite'
p4308
I3872
sS'haven'
p4309
I3889
sS'remember'
p4310
I3413
sS'steel'
p4311
I2133
sS'sporting'
p4312
I4377
sS'swimming'
p4313
I4365
sS'ben'
p4314
I2889
sS'liquid'
p4315
I4475
sS'culture'
p4316
I4740
sS'tommy'
p4317
I3916
sS'anaheim'
p4318
I1686
sS'individual'
p4319
I2780
sS'maybe'
p4320
I2749
sS'grade'
p4321
I4510
sS'mojave'
p4322
I4860
sS'providing'
p4323
I2571
sS'spurs'
p4324
I4650
sS'accusing'
p4325
I2783
sS'false'
p4326
I4944
sS'unchanged'
p4327
I4746
sS'partnership'
p4328
I2073
sS'washingtonpost'
p4329
I1553
sS'roebuck'
p4330
I4720
sS'comfortable'
p4331
I4730
sS'tonight'
p4332
I1240
sS'defending'
p4333
I1621
sS'have'
p4334
I35
sS'sen'
p4335
I1704
sS'need'
p4336
I864
sS'redmond'
p4337
I4780
sS'blockbuster'
p4338
I2726
sS'border'
p4339
I1177
sS'linked'
p4340
I1503
sS'catholic'
p4341
I4006
sS'documents'
p4342
I1765
sS'57'
p4343
I3973
sS'dallas'
p4344
I1290
sS'rout'
p4345
I3327
sS'agency'
p4346
I403
sS'able'
p4347
I1055
sS'mid'
p4348
I1453
sS'battles'
p4349
I4014
sS'contact'
p4350
I4261
sS'relatives'
p4351
I3220
sS'concerns'
p4352
I776
sS'which'
p4353
I92
sS'bus'
p4354
I2352
sS'jail'
p4355
I1813
sS'singh'
p4356
I1175
sS'martha'
p4357
I2515
sS'brand'
p4358
I2182
sS'medals'
p4359
I2700
sS'worldwide'
p4360
I1330
sS'56'
p4361
I3643
sS'unless'
p4362
I2074
sS'agenda'
p4363
I3963
sS'clash'
p4364
I2482
sS'centre'
p4365
I2303
sS'kazakhstan'
p4366
I4837
sS'who'
p4367
I72
sS'dutch'
p4368
I1136
sS'fred'
p4369
I4478
sS'wicket'
p4370
I4167
sS'visa'
p4371
I4651
sS'eight'
p4372
I495
sS'preliminary'
p4373
I2124
sS'device'
p4374
I1157
sS'friend'
p4375
I4069
sS'cabinet'
p4376
I2033
sS'medal'
p4377
I694
sS'why'
p4378
I1171
sS'volume'
p4379
I3471
sS'explosive'
p4380
I4890
sS'nobody'
p4381
I4946
sS'ambitions'
p4382
I3907
sS'upset'
p4383
I2046
sS'disease'
p4384
I1797
sS'face'
p4385
I351
sS'looked'
p4386
I1654
sS'proceedings'
p4387
I4869
sS'lowered'
p4388
I3074
sS'pictures'
p4389
I2641
sS'wounded'
p4390
I1098
sS'uefa'
p4391
I2546
sS'fact'
p4392
I2347
sS'goals'
p4393
I1486
sS'charley'
p4394
I3072
sS'emerging'
p4395
I2603
sS'currently'
p4396
I2697
sS'achieve'
p4397
I4948
sS'survived'
p4398
I3447
sS'chances'
p4399
I2343
sS'handsets'
p4400
I3278
sS'agreed'
p4401
I259
sS'charles'
p4402
I1950
sS'wins'
p4403
I2103
sS'bring'
p4404
I1034
sS'planning'
p4405
I1347
sS'manchester'
p4406
I799
sS'democrats'
p4407
I2805
sS'soldiers'
p4408
I739
sS'fear'
p4409
I2582
sS'asylum'
p4410
I4959
sS'eyes'
p4411
I2880
sS'debate'
p4412
I1274
sS'decade'
p4413
I1388
sS'staff'
p4414
I975
sS'partners'
p4415
I1817
sS'uprising'
p4416
I4227
sS'promote'
p4417
I3286
sS'based'
p4418
I229
sS'financequotelookup'
p4419
I2097
sS'earned'
p4420
I2625
sS'samarra'
p4421
I4193
sS'('
p4422
I15
sS'winner'
p4423
I1293
sS'hopeful'
p4424
I4062
sS'unions'
p4425
I2029
sS'controls'
p4426
I3717
sS'should'
p4427
I381
sS'jan'
p4428
I2226
sS'score'
p4429
I1922
sS'candidates'
p4430
I1978
sS'fuel'
p4431
I842
sS'communist'
p4432
I2433
sS'local'
p4433
I740
sS'interested'
p4434
I4665
sS'hope'
p4435
I1064
sS'nj'
p4436
I4496
sS'meant'
p4437
I3392
sS'embargo'
p4438
I4999
sS'sued'
p4439
I2404
sS'handle'
p4440
I3996
sS'bonds'
p4441
I1551
sS'beat'
p4442
I431
sS'familiar'
p4443
I1696
sS'michigan'
p4444
I1507
sS'overall'
p4445
I2087
sS'hire'
p4446
I4465
sS'120'
p4447
I4561
sS'joint'
p4448
I1383
sS'fraud'
p4449
I1093
sS'cubs'
p4450
I1946
sS'words'
p4451
I2367
sS'probably'
p4452
I1382
sS'bambang'
p4453
I4768
sS'kong'
p4454
I1338
sS'chips'
p4455
I1122
sS'areas'
p4456
I1645
sS'spammers'
p4457
I2988
sS'stability'
p4458
I4963
sS'evolution'
p4459
I3925
sS'hitter'
p4460
I4681
sS'tobacco'
p4461
I3526
sS'ended'
p4462
I657
sS'h'
p4463
I2733
sS'stanford'
p4464
I4879
sS'vivendi'
p4465
I4513
sS'taxes'
p4466
I2594
sS'calling'
p4467
I1355
sS'stuff'
p4468
I4364
sS'indonesian'
p4469
I2009
sS'she'
p4470
I482
sS'ohio'
p4471
I1497
sS'fixed'
p4472
I3300
sS'conduct'
p4473
I3557
sS'view'
p4474
I1894
sS'europe'
p4475
I441
sS'suing'
p4476
I4405
sS'j'
p4477
I1657
sS'acquired'
p4478
I2059
sS'national'
p4479
I183
sS'pitch'
p4480
I2402
sS'humans'
p4481
I3250
sS'accord'
p4482
I4992
sS'freeze'
p4483
I3212
sS'protesters'
p4484
I3834
sS'edition'
p4485
I1867
sS'computer'
p4486
I174
sS'desperate'
p4487
I4110
sS'greece'
p4488
I1116
sS'disc'
p4489
I2825
sS'packed'
p4490
I3664
sS'gmail'
p4491
I4625
sS'closer'
p4492
I1105
sS'walking'
p4493
I4882
sS'wire'
p4494
I3081
sS'extend'
p4495
I2194
sS'has'
p4496
I26
sS'nuclear'
p4497
I329
sS'nature'
p4498
I4121
sS'ralph'
p4499
I4838
sS'rolled'
p4500
I2718
sS'state'
p4501
I129
sS'proof'
p4502
I4362
sS'identification'
p4503
I4191
sS'bertrand'
p4504
I4646
sS'closed'
p4505
I1208
sS'crude'
p4506
I480
sS'progress'
p4507
I1697
sS'neither'
p4508
I4630
sS'blocked'
p4509
I4203
sS'linebacker'
p4510
I3201
sS'email'
p4511
I2829
sS'midnight'
p4512
I4814
sS'bought'
p4513
I1763
sS'shiite'
p4514
I1815
sS'ken'
p4515
I2538
sS'ends'
p4516
I3418
sS'bound'
p4517
I3499
sS'ability'
p4518
I2165
sS'opening'
p4519
I663
sS'importance'
p4520
I4477
sS'rescuers'
p4521
I4841
sS'deliver'
p4522
I2203
sS'agencies'
p4523
I1959
sS'job'
p4524
I611
sS'takeover'
p4525
I749
sS'joe'
p4526
I1964
sS'key'
p4527
I407
sS'sitting'
p4528
I3954
sS'police'
p4529
I235
sS'lawsuit'
p4530
I1079
sS'distribution'
p4531
I2769
sS'jon'
p4532
I4222
sS'david'
p4533
I631
sS'karzai'
p4534
I1734
sS'hits'
p4535
I1614
sS'piece'
p4536
I3292
sS'instant'
p4537
I2149
sS'limits'
p4538
I4368
sS'wta'
p4539
I3977
sS'career'
p4540
I710
sS'kofi'
p4541
I2369
sS'taking'
p4542
I532
sS'escape'
p4543
I4565
sS'incident'
p4544
I4136
sS'drug'
p4545
I409
sS'rams'
p4546
I4358
sS'april'
p4547
I2357
sS'randy'
p4548
I3461
sS'figures'
p4549
I1302
sS'passing'
p4550
I3178
sS'abbey'
p4551
I4175
sS'guerrilla'
p4552
I4758
sS'jersey'
p4553
I2329
sS'damages'
p4554
I4499
sS'detailed'
p4555
I4525
sS'torn'
p4556
I2521
sS'co'
p4557
I168
sS'gone'
p4558
I2001
sS'wall'
p4559
I451
sS'tuesday'
p4560
I54
sS'irish'
p4561
I1671
sS'walk'
p4562
I2881
sS'walt'
p4563
I2154
sS'variety'
p4564
I4463
sS'disputed'
p4565
I3084
sS'businessman'
p4566
I4530
sS'dot'
p4567
I4921
sS'guantanamo'
p4568
I3936
sS'table'
p4569
I2839
sS'oakland'
p4570
I1199
sS'withdrawn'
p4571
I4430
sS'600'
p4572
I3188
sS'quit'
p4573
I2540
sS'silvio'
p4574
I4727
sS'johnny'
p4575
I4701
sS'powered'
p4576
I2981
sS'addition'
p4577
I3733
sS'bbc'
p4578
I2543
sS'copies'
p4579
I2950
sS'cent'
p4580
I986
sS'genetic'
p4581
I4692
sS'permanent'
p4582
I4133
sS'slowly'
p4583
I4170
sS'treat'
p4584
I3671
sS'gaza'
p4585
I425
sS'upbeat'
p4586
I3914
sS'proposal'
p4587
I1341
sS'louisiana'
p4588
I3842
sS'handset'
p4589
I3372
sS'ramallah'
p4590
I3429
sS'suggested'
p4591
I2634
sS'mike'
p4592
I985
sS'liverpool'
p4593
I1821
sS'general'
p4594
I279
sS'verizon'
p4595
I2310
sS'both'
p4596
I421
sS'am'
p4597
I1635
sS'astros'
p4598
I1421
sS'releasing'
p4599
I3902
sS'climate'
p4600
I1829
sS'al'
p4601
I284
sS'guerrillas'
p4602
I3681
sS'finished'
p4603
I1727
sS'minneapolis'
p4604
I4190
sS'gun'
p4605
I3725
sS'graphics'
p4606
I2580
sS'improved'
p4607
I1940
sS'atlanta'
p4608
I862
sS'an'
p4609
I28
sS'spain'
p4610
I834
sS'homer'
p4611
I1747
sS'homes'
p4612
I1146
sS'multi'
p4613
I2592
sS'troubled'
p4614
I1428
sS'couple'
p4615
I2702
sS'abandoned'
p4616
I4317
sS'ap'
p4617
I46
sS'norway'
p4618
I3861
sS'appearance'
p4619
I3017
sS'as'
p4620
I18
sS'value'
p4621
I1630
sS'will'
p4622
I33
sS'influential'
p4623
I4975
sS'stunning'
p4624
I3575
sS'owns'
p4625
I4338
sS'wild'
p4626
I1572
sS'jay'
p4627
I4035
sS'campaigns'
p4628
I4675
sS'supply'
p4629
I942
sS'va'
p4630
I2522
sS'bengals'
p4631
I4660
sS'barely'
p4632
I3047
sS've'
p4633
I2178
sS'almost'
p4634
I622
sS'registered'
p4635
I4359
sS'site'
p4636
I564
sS'surface'
p4637
I2775
sS'roll'
p4638
I3202
sS'helped'
p4639
I659
sS'savings'
p4640
I4354
sS'vs'
p4641
I2523
sS'properties'
p4642
I4806
sS'demanded'
p4643
I3265
sS'dual'
p4644
I2470
sS'politics'
p4645
I3145
sS'claimed'
p4646
I959
sS'partner'
p4647
I2229
sS'halt'
p4648
I2216
sS'tumbled'
p4649
I4329
sS'capture'
p4650
I3062
sS'terrorist'
p4651
I1207
sS'1998'
p4652
I4739
sS')'
p4653
I16
sS'syrian'
p4654
I4283
sS'began'
p4655
I642
sS'views'
p4656
I4216
sS'administration'
p4657
I664
sS'cross'
p4658
I2151
sS'campus'
p4659
I4610
sS'member'
p4660
I1164
sS'guns'
p4661
I4607
sS'parts'
p4662
I1401
sS'slammed'
p4663
I4386
sS'northwest'
p4664
I3572
sS'1990s'
p4665
I3767
sS'largest'
p4666
I165
sS'shuttle'
p4667
I2219
sS'party'
p4668
I477
sS'terrorism'
p4669
I972
sS'gets'
p4670
I1975
sS'powell'
p4671
I1733
sS'paula'
p4672
I4096
sS'difficult'
p4673
I2235
sS'injured'
p4674
I712
sS'ball'
p4675
I1434
sS'http'
p4676
I208
sS'again'
p4677
I449
sS'undisclosed'
p4678
I4923
sS'receiver'
p4679
I1861
sS'upon'
p4680
I3890
sS'effect'
p4681
I2214
sS'forecasts'
p4682
I2010
sS'coaches'
p4683
I2717
sS'sadr'
p4684
I1559
sS'padres'
p4685
I4707
sS'student'
p4686
I3820
sS'novell'
p4687
I2075
sS'afghan'
p4688
I1156
sS'colts'
p4689
I2743
sS'expand'
p4690
I1624
sS'destruction'
p4691
I3336
sS'celtic'
p4692
I3346
sS'farm'
p4693
I4327
sS'off'
p4694
I122
sS'center'
p4695
I496
sS'collection'
p4696
I4847
sS'i'
p4697
I247
sS'approve'
p4698
I3232
sS'indonesia'
p4699
I1481
sS'well'
p4700
I447
sS'fighting'
p4701
I847
sS'antonio'
p4702
I2439
sS'thought'
p4703
I1203
sS'premiership'
p4704
I2102
sS'memorial'
p4705
I4986
sS'command'
p4706
I4628
sS'experimental'
p4707
I4124
sS'deadly'
p4708
I1644
sS'position'
p4709
I1078
sS'audio'
p4710
I3294
sS'soviet'
p4711
I4387
sS'drawing'
p4712
I4831
sS'latest'
p4713
I313
sS'ny'
p4714
I3010
sS'stores'
p4715
I618
sS'rocket'
p4716
I1227
sS'less'
p4717
I641
sS'increasingly'
p4718
I2018
sS'offensive'
p4719
I1162
sS'executive'
p4720
I296
sS'domestic'
p4721
I1454
sS'bloomfield'
p4722
I4186
sS'43'
p4723
I2715
sS'sources'
p4724
I1048
sS'batteries'
p4725
I4926
sS'interim'
p4726
I1115
sS'virtual'
p4727
I2804
sS'rocked'
p4728
I3406
sS'seats'
p4729
I3965
sS'protecting'
p4730
I4564
sS'paul'
p4731
I753
sS'41'
p4732
I1775
sS'transportation'
p4733
I3627
sS'brad'
p4734
I4082
sS'web'
p4735
I254
sS'rapid'
p4736
I3714
sS'console'
p4737
I3184
sS'hackers'
p4738
I2855
sS'tight'
p4739
I2002
sS'drive'
p4740
I906
sS'smith'
p4741
I2045
sS'lake'
p4742
I2685
sS'capabilities'
p4743
I3028
sS'discuss'
p4744
I1977
sS'arrest'
p4745
I2224
sS'add'
p4746
I1804
sS'book'
p4747
I2089
sS'nato'
p4748
I4197
sS'crack'
p4749
I3901
sS'astronaut'
p4750
I4426
sS'ziff'
p4751
I3261
sS'unprecedented'
p4752
I2810
sS'match'
p4753
I566
sS'boom'
p4754
I3548
sS'tests'
p4755
I1955
sS'increased'
p4756
I969
sS'fate'
p4757
I3343
sS'government'
p4758
I94
sS'chancellor'
p4759
I3577
sS'utah'
p4760
I1770
sS'february'
p4761
I3183
sS'munich'
p4762
I3075
sS'siemens'
p4763
I3816
sS'increases'
p4764
I2533
sS'historic'
p4765
I1812
sS'five'
p4766
I181
sS'know'
p4767
I1088
sS'deployment'
p4768
I3688
sS'press'
p4769
I427
sS'immediately'
p4770
I1924
sS'msft'
p4771
I1772
sS'prominent'
p4772
I3472
sS'computerworld'
p4773
I3279
sS'loss'
p4774
I385
sS'billions'
p4775
I3306
sS'motorola'
p4776
I2947
sS'necessary'
p4777
I3922
sS'like'
p4778
I278
sS'lost'
p4779
I574
sS'miami'
p4780
I803
sS'ring'
p4781
I2721
sS'admitted'
p4782
I1945
sS'guidant'
p4783
I4820
sS'sized'
p4784
I2990
sS'hosts'
p4785
I4223
sS'payments'
p4786
I3117
sS'james'
p4787
I1366
sS'become'
p4788
I552
sS'works'
p4789
I2490
sS'soft'
p4790
I2397
sS'page'
p4791
I2429
sS'italian'
p4792
I900
sS'gaining'
p4793
I3684
sS'najaf'
p4794
I1202
sS'village'
p4795
I3448
sS'grizzlies'
p4796
I4931
sS'searching'
p4797
I3137
sS'authority'
p4798
I2112
sS'identified'
p4799
I3314
sS'wider'
p4800
I3569
sS'growth'
p4801
I324
sS'gymnastics'
p4802
I3295
sS'cleveland'
p4803
I1309
sS'home'
p4804
I177
sS'empire'
p4805
I4737
sS'peter'
p4806
I2382
sS'suspension'
p4807
I2968
sS'beslan'
p4808
I2991
sS'transport'
p4809
I3655
sS'nokia'
p4810
I1461
sS'trust'
p4811
I2913
sS'jeremy'
p4812
I4160
sS'lead'
p4813
I218
sS'broad'
p4814
I2844
sS'avoid'
p4815
I1260
sS'delaware'
p4816
I4312
sS'hurricane'
p4817
I527
sS'does'
p4818
I767
sS'mcdonald'
p4819
I4289
sS'leader'
p4820
I245
sS'?'
p4821
I100
sS'kidnappers'
p4822
I2609
sS'ripped'
p4823
I3859
sS'symantec'
p4824
I3284
sS'indicated'
p4825
I3623
sS'reaching'
p4826
I2171
sS'journal'
p4827
I2058
sS'shortage'
p4828
I4122
sS'monetary'
p4829
I2449
sS'expansion'
p4830
I1779
sS'comcast'
p4831
I4550
sS'paper'
p4832
I2872
sS'pressure'
p4833
I893
sS'host'
p4834
I1262
sS'chose'
p4835
I4862
sS'although'
p4836
I1143
sS'offset'
p4837
I2466
sS'described'
p4838
I2506
sS'r'
p4839
I2036
sS'loans'
p4840
I3350
sS'trials'
p4841
I3606
sS'stage'
p4842
I1221
sS'gained'
p4843
I2378
sS'about'
p4844
I71
sS'rare'
p4845
I1991
sS'carried'
p4846
I2496
sS'extension'
p4847
I2677
sS'getting'
p4848
I872
sS'longest'
p4849
I3645
sS'processors'
p4850
I2321
sS'withdrew'
p4851
I3489
sS'basis'
p4852
I4041
sS'aziz'
p4853
I4083
sS'urged'
p4854
I1104
sS'surge'
p4855
I2193
sS'angeles'
p4856
I524
sS'holdings'
p4857
I1505
sS'carrier'
p4858
I1138
sS'erp'
p4859
I4632
sS'introduced'
p4860
I1368
sS'realnetworks'
p4861
I4146
sS'executives'
p4862
I824
sS'em'
p4863
I4666
sS'own'
p4864
I594
sS'falluja'
p4865
I2161
sS'tourists'
p4866
I3836
sS'conway'
p4867
I4231
sS'previously'
p4868
I1627
sS'travelers'
p4869
I4424
sS'washington'
p4870
I134
sS'commitment'
p4871
I3365
sS'cleared'
p4872
I2915
sS'referendum'
p4873
I3013
sS'malcolm'
p4874
I3766
sS'tackle'
p4875
I2346
sS'guard'
p4876
I978
sS'weather'
p4877
I1444
sS'promise'
p4878
I3142
sS'tiny'
p4879
I2079
sS'female'
p4880
I3273
sS'cingular'
p4881
I2195
sS'roads'
p4882
I4805
sS'capable'
p4883
I2884
sS'managing'
p4884
I3595
sS'utility'
p4885
I3134
sS'convicted'
p4886
I2542
sS'mississippi'
p4887
I3801
sS'accused'
p4888
I640
sS'additional'
p4889
I2514
sS'pc'
p4890
I609
sS'prospects'
p4891
I2916
sS'housing'
p4892
I2366
sS'reduction'
p4893
I4655
sS'celebration'
p4894
I4301
sS'awarded'
p4895
I2984
sS'overtime'
p4896
I2145
sS'dropping'
p4897
I3521
sS'biggest'
p4898
I292
sS'venezuelan'
p4899
I4571
sS'suzuki'
p4900
I4466
sS'fiscal'
p4901
I1523
sS'cricket'
p4902
I1084
sS'buy'
p4903
I402
sS'north'
p4904
I280
sS'stadium'
p4905
I633
sS'triggered'
p4906
I3804
sS'insurer'
p4907
I3514
sS'funds'
p4908
I1406
sS'hp'
p4909
I2067
sS'mauresmo'
p4910
I3760
sS'but'
p4911
I47
sS'xinhua'
p4912
I4446
sS'delivery'
p4913
I3124
sS'construction'
p4914
I2327
sS'gain'
p4915
I1432
sS'courts'
p4916
I4677
sS'threaten'
p4917
I4774
sS'highest'
p4918
I1196
sS'memphis'
p4919
I3105
sS'hd'
p4920
I3378
sS'he'
p4921
I44
sS'count'
p4922
I3774
sS'breakthrough'
p4923
I4404
sS'made'
p4924
I189
sS'packard'
p4925
I1554
sS'places'
p4926
I3358
sS'whether'
p4927
I476
sS'dangerous'
p4928
I2513
sS'cells'
p4929
I3508
sS'official'
p4930
I303
sS'signed'
p4931
I604
sS'hague'
p4932
I3870
sS'record'
p4933
I159
sS'below'
p4934
I1301
sS'89'
p4935
I3785
sS'limit'
p4936
I3495
sS'ruling'
p4937
I964
sS'problem'
p4938
I1386
sS'dame'
p4939
I1898
sS'minutes'
p4940
I1073
sS'display'
p4941
I1749
sS'urging'
p4942
I3593
sS'supreme'
p4943
I1294
sS'entering'
p4944
I3485
sS'deaths'
p4945
I2652
sS'universal'
p4946
I2631
sS'slowing'
p4947
I3161
sS'distributor'
p4948
I4620
sS'rankings'
p4949
I4130
sS'shooting'
p4950
I2099
sS'eric'
p4951
I3844
sS'worse'
p4952
I3518
sS'inc'
p4953
I61
sS'diego'
p4954
I1536
sS'mutual'
p4955
I1879
sS'compared'
p4956
I2630
sS"'ll"
p4957
I3065
sS'48'
p4958
I1938
sS'49'
p4959
I1740
sS'46'
p4960
I3018
sS'corporation'
p4961
I1463
sS'44'
p4962
I2730
sS'45'
p4963
I1842
sS'percent'
p4964
I105
sS'treatment'
p4965
I1914
sS'40'
p4966
I1031
sS'peoplesoft'
p4967
I560
sS'other'
p4968
I149
sS'details'
p4969
I1761
sS'branch'
p4970
I4482
sS'mass'
p4971
I1450
sS'85'
p4972
I3112
sS'angel'
p4973
I4435
sS'guys'
p4974
I4915
sS'illegally'
p4975
I2658
sS'francisco'
p4976
I366
sS'star'
p4977
I542
sS'monday'
p4978
I52
sS'class'
p4979
I1710
sS'june'
p4980
I1591
sS'stay'
p4981
I1416
sS'margaret'
p4982
I2965
sS'chance'
p4983
I994
sS'nintendo'
p4984
I2025
sS'else'
p4985
I3433
sS'friends'
p4986
I2588
sS'dolphins'
p4987
I1719
sS'philips'
p4988
I3915
sS'battled'
p4989
I4158
sS'sentiment'
p4990
I2927
sS'using'
p4991
I545
sS'samsung'
p4992
I2464
sS'ranks'
p4993
I3639
sS'resolution'
p4994
I1801
sS'earthquake'
p4995
I2257
sS'rule'
p4996
I1563
sS'blu'
p4997
I4267
sS'races'
p4998
I3328
sS'compete'
p4999
I2162
sS'pension'
p5000
I1930
sS'knicks'
p5001
I3898
sS'frankfurt'
p5002
I4151
sS'bcs'
p5003
I4759
s.