(dp0
S'all'
p1
I111
sS'gt'
p2
I48
sS'just'
p3
I170
sS'percent'
p4
I105
sS'over'
p5
I41
sS'league'
p6
I167
sS'years'
p7
I97
sS'four'
p8
I131
sS'during'
p9
I202
sS'its'
p10
I19
sS'before'
p11
I161
sS'now'
p12
I200
sS'group'
p13
I101
sS'million'
p14
I84
sS'('
p15
I15
sS'had'
p16
I82
sS','
p17
I4
sS'thursday'
p18
I59
sS'former'
p19
I143
sS'to'
p20
I6
sS'lt'
p21
I49
sS'reuters'
p22
I30
sS'4'
p23
I153
sS'has'
p24
I26
sS'into'
p25
I75
sS'his'
p26
I31
sS'government'
p27
I94
sS'<eos>'
p28
I2
sS'game'
p29
I93
sS'five'
p30
I181
sS'they'
p31
I64
sS'international'
p32
I133
sS'not'
p33
I69
sS'world'
p34
I56
sS'month'
p35
I151
sS'ticker'
p36
I196
sS'day'
p37
I116
sS'prime'
p38
I185
sS'killed'
p39
I182
sS'wednesday'
p40
I53
sS'bush'
p41
I188
sS'announced'
p42
I127
sS'night'
p43
I109
sS'security'
p44
I117
sS'quarter'
p45
I120
sS'says'
p46
I147
sS'people'
p47
I96
sS'national'
p48
I183
sS'some'
p49
I128
sS'back'
p50
I132
sS'second'
p51
I102
sS'officials'
p52
I144
sS'are'
p53
I39
sS'year'
p54
I43
sS'home'
p55
I177
sS'saturday'
p56
I106
sS'out'
p57
I76
sS'what'
p58
I179
sS'said'
p59
I22
sS'network'
p60
I197
sS'for'
p61
I11
sS'federal'
p62
I180
sS'while'
p63
I194
sS'research'
p64
I192
sS'3'
p65
I126
sS'7'
p66
I186
sS'internet'
p67
I124
sS'new'
p68
I27
sS'?'
p69
I100
sS'can'
p70
I138
sS'be'
p71
I36
sS'after'
p72
I34
sS'business'
p73
I146
sS'state'
p74
I129
sS'team'
p75
I121
sS'friday'
p76
I62
sS'victory'
p77
I156
sS'reported'
p78
I172
sS'corp'
p79
I85
sS'york'
p80
I68
sS'fullquote'
p81
I118
sS'iraq'
p82
I103
sS'by'
p83
I24
sS'on'
p84
I10
sS'39'
p85
I12
sS'last'
p86
I66
sS'service'
p87
I169
sS'of'
p88
I7
sS'could'
p89
I98
sS'according'
p90
I184
sS'against'
p91
I70
sS's'
p92
I13
sS'china'
p93
I190
sS'com'
p94
I104
sS'or'
p95
I114
sS'first'
p96
I45
sS'major'
p97
I195
sS'co'
p98
I168
sS'win'
p99
I150
sS'tuesday'
p100
I54
sS'washington'
p101
I134
sS'one'
p102
I55
sS'down'
p103
I178
sS'news'
p104
I142
sS'open'
p105
I163
sS'market'
p106
I141
sS'city'
p107
I154
sS'from'
p108
I29
sS'would'
p109
I90
sS'0'
p110
I193
sS'top'
p111
I145
sS'two'
p112
I38
sS'been'
p113
I80
sS'next'
p114
I110
sS'their'
p115
I37
sS'2'
p116
I81
sS'6'
p117
I130
sS'expected'
p118
I187
sS'was'
p119
I32
sS'today'
p120
I95
sS'more'
p121
I51
sS'billion'
p122
I139
sS'``'
p123
I60
sS'that'
p124
I14
sS'season'
p125
I113
sS'company'
p126
I58
sS'about'
p127
I71
sS'but'
p128
I47
sS'sales'
p129
I175
sS'court'
p130
I201
sS'minister'
p131
I125
sS'prices'
p132
I115
sS'with'
p133
I17
sS'than'
p134
I63
sS'he'
p135
I44
sS'high'
p136
I135
sS'made'
p137
I189
sS'target'
p138
I198
sS'this'
p139
I50
sS'up'
p140
I57
sS'us'
p141
I40
sS'n'
p142
I107
sS'will'
p143
I33
sS'record'
p144
I159
sS'states'
p145
I148
sS'computer'
p146
I174
sS'three'
p147
I78
sS'were'
p148
I74
sS'country'
p149
I158
sS'<unk>'
p150
I1
sS'and'
p151
I9
sS'is'
p152
I21
sS'it'
p153
I23
sS'an'
p154
I28
sS"''"
p155
I73
sS'ap'
p156
I46
sS'<pad>'
p157
I0
sS'at'
p158
I20
sS'have'
p159
I35
sS'in'
p160
I8
sS't'
p161
I171
sS'technology'
p162
I164
sS'as'
p163
I18
sS'inc'
p164
I61
sS'united'
p165
I91
sS'end'
p166
I160
sS'quot'
p167
I42
sS')'
p168
I16
sS'european'
p169
I162
sS'when'
p170
I87
sS'american'
p171
I173
sS'1'
p172
I77
sS'sunday'
p173
I88
sS'other'
p174
I149
sS'5'
p175
I166
sS'which'
p176
I92
sS'largest'
p177
I165
sS'you'
p178
I157
sS'if'
p179
I152
sS'afp'
p180
I176
sS'10'
p181
I155
sS'week'
p182
I83
sS'oil'
p183
I86
sS"'s"
p184
I25
sS'plans'
p185
I191
sS'monday'
p186
I52
sS'may'
p187
I137
sS'who'
p188
I72
sS'yesterday'
p189
I67
sS'most'
p190
I140
sS'president'
p191
I79
sS'stocks'
p192
I123
sS'a'
p193
I5
sS'off'
p194
I122
sS'third'
p195
I112
sS'no'
p196
I99
sS'maker'
p197
I199
sS'u'
p198
I65
sS'2004'
p199
I136
sS'time'
p200
I89
sS'the'
p201
I3
sS'software'
p202
I108
sS'microsoft'
p203
I119
s.