(dp0
S'all'
p1
I225
sS'gt'
p2
I213
sS'ang@@'
p3
I479
sS'd@@'
p4
I14
sS'ment@@'
p5
I741
sS'med@@'
p6
I579
sS'ders'
p7
I723
sS'ab@@'
p8
I183
sS'rec@@'
p9
I215
sS'four'
p10
I717
sS'ge'
p11
I418
sS'during'
p12
I761
sS'igh@@'
p13
I507
sS'als'
p14
I456
sS'gh'
p15
I416
sS'"b@@'
p16
I969
sS'aw@@'
p17
I833
sS'fro@@'
p18
I946
sS'ver'
p19
I848
sS'"ap'
p20
I910
sS'ans@@'
p21
I732
sS'z'
p22
I720
sS'ts'
p23
I161
sS'thursday'
p24
I392
sS'former'
p25
I696
sS'to'
p26
I13
sS'oun@@'
p27
I240
sS'euro@@'
p28
I885
sS'th'
p29
I133
sS'dec@@'
p30
I399
sS'y@@'
p31
I45
sS'the@@'
p32
I513
sS'ut@@'
p33
I117
sS'for@@'
p34
I229
sS'echnolog@@'
p35
I914
sS'sc@@'
p36
I286
sS're@@'
p37
I40
sS'ics'
p38
I629
sS'ical'
p39
I482
sS'offici@@'
p40
I925
sS'month@@'
p41
I544
sS'5@@'
p42
I170
sS'work@@'
p43
I402
sS'sur@@'
p44
I266
sS'target@@'
p45
I768
sS'oll@@'
p46
I583
sS'ww@@'
p47
I963
sS'ers'
p48
I75
sS'wednesday'
p49
I376
sS'targ@@'
p50
I920
sS'p'
p51
I118
sS'com@@'
p52
I120
sS'mat@@'
p53
I706
sS'sum@@'
p54
I673
sS'ain@@'
p55
I244
sS'me@@'
p56
I498
sS'team'
p57
I606
sS'over@@'
p58
I413
sS'ens'
p59
I711
sS'@@'
p60
I3
sS'gu@@'
p61
I450
sS'sra@@'
p62
I945
sS'ween'
p63
I964
sS'ted'
p64
I326
sS'"p@@'
p65
I970
sS'urs@@'
p66
I949
sS'ents'
p67
I379
sS'de@@'
p68
I490
sS'ter'
p69
I233
sS'thurs@@'
p70
I640
sS'ar@@'
p71
I53
sS'what'
p72
I791
sS'bom@@'
p73
I820
sS'00@@'
p74
I868
sS'ned'
p75
I350
sS'ory'
p76
I668
sS'par@@'
p77
I503
sS')@@'
p78
I612
sS'amp@@'
p79
I323
sS'fre@@'
p80
I764
sS'po@@'
p81
I333
sS'new'
p82
I98
sS'net'
p83
I900
sS'ss@@'
p84
I802
sS'ru@@'
p85
I201
sS'ated'
p86
I300
sS'2@@'
p87
I102
sS'pe@@'
p88
I828
sS'million'
p89
I434
sS'led'
p90
I593
sS'sec@@'
p91
I387
sS'v'
p92
I864
sS'ak@@'
p93
I263
sS'th@@'
p94
I57
sS'reported'
p95
I770
sS'pro@@'
p96
I100
sS'ect@@'
p97
I279
sS'ud@@'
p98
I317
sS'ver@@'
p99
I273
sS'iraq'
p100
I621
sS'39'
p101
I55
sS'p)'
p102
I824
sS'k'
p103
I82
sS'(@@'
p104
I128
sS'ould'
p105
I883
sS'iv@@'
p106
I139
sS'ect'
p107
I646
sS'si@@'
p108
I180
sS'('
p109
I956
sS'es@@'
p110
I129
sS'out@@'
p111
I464
sS'att@@'
p112
I237
sS'del@@'
p113
I740
sS'recor@@'
p114
I894
sS'york'
p115
I501
sS'r@@'
p116
I31
sS'mp@@'
p117
I912
sS'ro@@'
p118
I71
sS'bel@@'
p119
I672
sS'win'
p120
I604
sS'qu@@'
p121
I166
sS'bas@@'
p122
I759
sS'compan@@'
p123
I457
sS'ull@@'
p124
I548
sS'cla@@'
p125
I806
sS'ating'
p126
I423
sS'market'
p127
I722
sS'announced'
p128
I522
sS'pea@@'
p129
I724
sS'use'
p130
I866
sS'illion'
p131
I955
sS'from'
p132
I113
sS'publ@@'
p133
I532
sS'would'
p134
I401
sS'0'
p135
I190
sS've@@'
p136
I698
sS'mo@@'
p137
I254
sS'two'
p138
I241
sS'bro@@'
p139
I663
sS'next'
p140
I484
sS'resident'
p141
I886
sS'rac@@'
p142
I650
sS'plo@@'
p143
I505
sS'6'
p144
I335
sS'er,'
p145
I357
sS'prof@@'
p146
I534
sS'ad@@'
p147
I83
sS'eral'
p148
I541
sS'today'
p149
I554
sS'more'
p150
I250
sS'ood'
p151
I656
sS'yester@@'
p152
I846
sS'arm@@'
p153
I755
sS'(reuters)'
p154
I197
sS'ot@@'
p155
I91
sS'tra@@'
p156
I295
sS'tim@@'
p157
I566
sS'no@@'
p158
I364
sS'company'
p159
I334
sS'ital'
p160
I677
sS'govern@@'
p161
I893
sS'iraq@@'
p162
I504
sS'ate'
p163
I134
sS'sal@@'
p164
I887
sS'lea@@'
p165
I150
sS'nex@@'
p166
I948
sS'said@@'
p167
I909
sS'win@@'
p168
I517
sS'""@@'
p169
I957
sS'week@@'
p170
I510
sS'overn@@'
p171
I919
sS'poin@@'
p172
I603
sS'(a@@'
p173
I859
sS'f'
p174
I280
sS'this'
p175
I255
sS'"a@@'
p176
I877
sS'der'
p177
I227
sS'work'
p178
I845
sS'ational'
p179
I862
sS'ere'
p180
I373
sS'hol@@'
p181
I536
sS'can'
p182
I568
sS'ning'
p183
I337
sS'inter@@'
p184
I208
sS'ong@@'
p185
I411
sS'ded'
p186
I469
sS'un@@'
p187
I59
sS'ions'
p188
I260
sS'indu@@'
p189
I746
sS'vict@@'
p190
I918
sS'hom@@'
p191
I840
sS'icker@@'
p192
I939
sS'ch@@'
p193
I54
sS'e@@'
p194
I20
sS'<pad>'
p195
I0
sS'pl@@'
p196
I79
sS'"http'
p197
I865
sS'ist'
p198
I555
sS'stri@@'
p199
I635
sS'rev@@'
p200
I428
sS'united'
p201
I417
sS'end'
p202
I377
sS'ry'
p203
I509
sS'quot'
p204
I191
sS'w@@'
p205
I29
sS'reuter@@'
p206
I960
sS'1'
p207
I348
sS'uter@@'
p208
I892
sS'sunday'
p209
I607
sS'sch@@'
p210
I708
sS'ent'
p211
I171
sS'sp@@'
p212
I93
sS's,'
p213
I94
sS'mic@@'
p214
I852
sS'ou@@'
p215
I106
sS'!'
p216
I943
sS'raf@@'
p217
I694
sS'are@@'
p218
I489
sS'plans'
p219
I760
sS'may'
p220
I578
sS'z@@'
p221
I142
sS'il@@'
p222
I99
sS'oper@@'
p223
I543
sS'ball'
p224
I774
sS'to@@'
p225
I162
sS'st@@'
p226
I33
sS'ed,'
p227
I813
sS'president'
p228
I461
sS'jo@@'
p229
I478
sS'ion,'
p230
I701
sS'man'
p231
I367
sS'a'
p232
I5
sS'ide'
p233
I358
sS'o@@'
p234
I32
sS'ev@@'
p235
I145
sS'third'
p236
I729
sS'isra@@'
p237
I766
sS'ec@@'
p238
I181
sS'uters'
p239
I971
sS'duc@@'
p240
I769
sS'st'
p241
I296
sS'q'
p242
I937
sS'so'
p243
I639
sS'ish@@'
p244
I608
sS'oo@@'
p245
I199
sS'am@@'
p246
I78
sS'ext@@'
p247
I847
sS'se'
p248
I152
sS'perc@@'
p249
I913
sS'edn@@'
p250
I961
sS'mis@@'
p251
I319
sS'y,'
p252
I258
sS'cont@@'
p253
I327
sS'sha@@'
p254
I561
sS'ping'
p255
I588
sS'over'
p256
I176
sS'ite'
p257
I371
sS'countr@@'
p258
I595
sS'uring'
p259
I901
sS'years'
p260
I577
sS'li@@'
p261
I147
sS'em@@'
p262
I121
sS'ity'
p263
I207
sS'pol@@'
p264
I356
sS'its'
p265
I70
sS'before'
p266
I675
sS'ag@@'
p267
I122
sS',000'
p268
I814
sS'ester@@'
p269
I891
sS'le'
p270
I173
sS'ement'
p271
I426
sS'ched'
p272
I775
sS'ech@@'
p273
I917
sS'lo@@'
p274
I187
sS','
p275
I30
sS'lt'
p276
I214
sS'ri@@'
p277
I109
sS'satur@@'
p278
I854
sS'earch@@'
p279
I665
sS'loc@@'
p280
I609
sS'j@@'
p281
I60
sS'tel@@'
p282
I715
sS'microsof@@'
p283
I934
sS'ally'
p284
I366
sS'ly'
p285
I96
sS'stral@@'
p286
I936
sS'again@@'
p287
I932
sS'servic@@'
p288
I481
sS'3@@'
p289
I154
sS'air@@'
p290
I491
sS'ong'
p291
I385
sS'they'
p292
I336
sS'not'
p293
I322
sS'son'
p294
I598
sS'day'
p295
I164
sS'ass@@'
p296
I256
sS'gue'
p297
I669
sS'agre@@'
p298
I495
sS'l'
p299
I85
sS'play@@'
p300
I389
sS'b@@'
p301
I9
sS'or@@'
p302
I48
sS'victory'
p303
I688
sS'gi@@'
p304
I620
sS'row@@'
p305
I557
sS'quarter'
p306
I613
sS'ports'
p307
I736
sS'el'
p308
I212
sS'en'
p309
I89
sS'technolog@@'
p310
I633
sS'ed'
p311
I25
sS'pres@@'
p312
I527
sS'used'
p313
I551
sS'i@@'
p314
I15
sS'per@@'
p315
I219
sS'ep@@'
p316
I261
sS'ey'
p317
I339
sS'rim@@'
p318
I921
sS'year'
p319
I396
sS'ous'
p320
I884
sS'et'
p321
I243
sS'off@@'
p322
I368
sS'saturday'
p323
I719
sS'es'
p324
I38
sS'er'
p325
I43
sS'ation@@'
p326
I338
sS'ly@@'
p327
I899
sS'ticker@@'
p328
I965
sS'eas@@'
p329
I871
sS'est@@'
p330
I193
sS"'"
p331
I869
sS'ron@@'
p332
I690
sS'res'
p333
I344
sS'forc@@'
p334
I734
sS'ach@@'
p335
I455
sS'ase'
p336
I648
sS'day,'
p337
I216
sS'stoc@@'
p338
I395
sS'7'
p339
I569
sS'internet'
p340
I634
sS'ble'
p341
I636
sS'wee@@'
p342
I878
sS'red'
p343
I210
sS'e,'
p344
I126
sS'im@@'
p345
I101
sS'after'
p346
I153
sS'ast'
p347
I424
sS'su@@'
p348
I136
sS'pu@@'
p349
I686
sS'friday'
p350
I431
sS'ors'
p351
I301
sS'we@@'
p352
I873
sS'ited'
p353
I888
sS'"'
p354
I217
sS'rit@@'
p355
I567
sS'ir@@'
p356
I149
sS'comm@@'
p357
I611
sS'ecut@@'
p358
I940
sS'yst@@'
p359
I823
sS'oc@@'
p360
I151
sS'ore'
p361
I572
sS'reuters@@'
p362
I959
sS'ange'
p363
I839
sS'low@@'
p364
I302
sS'g'
p365
I202
sS'ed@@'
p366
I143
sS'di@@'
p367
I200
sS'could'
p368
I433
sS'ol@@'
p369
I80
sS'ay@@'
p370
I275
sS'invest@@'
p371
I346
sS'br@@'
p372
I597
sS'an@@'
p373
I41
sS'american'
p374
I714
sS'ish'
p375
I397
sS'w'
p376
I157
sS'8@@'
p377
I311
sS'first'
p378
I224
sS'ding'
p379
I163
sS'yor@@'
p380
I599
sS'""http'
p381
I930
sS'ail@@'
p382
I378
sS'ief'
p383
I727
sS'milit@@'
p384
I514
sS'en@@'
p385
I49
sS'one'
p386
I178
sS'micro@@'
p387
I933
sS'igg@@'
p388
I707
sS'sho@@'
p389
I737
sS'str@@'
p390
I186
sS'says'
p391
I682
sS'ying'
p392
I552
sS'bl@@'
p393
I320
sS'ial'
p394
I298
sS'ian'
p395
I234
sS'officials'
p396
I615
sS'their'
p397
I174
sS'top'
p398
I542
sS'ank@@'
p399
I375
sS'least'
p400
I757
sS'wh@@'
p401
I242
sS'comp@@'
p402
I297
sS'ton'
p403
I361
sS'call@@'
p404
I705
sS'ary'
p405
I328
sS'man@@'
p406
I470
sS'x@@'
p407
I184
sS'pa@@'
p408
I700
sS'pris@@'
p409
I771
sS'joh@@'
p410
I637
sS'on,'
p411
I683
sS'that'
p412
I63
sS'season'
p413
I730
sS'day@@'
p414
I365
sS'ur@@'
p415
I84
sS'ob@@'
p416
I460
sS'ith'
p417
I876
sS'se@@'
p418
I321
sS'ess@@'
p419
I267
sS'beg@@'
p420
I789
sS'echn@@'
p421
I922
sS'than'
p422
I289
sS'ential'
p423
I812
sS'king'
p424
I573
sS'b'
p425
I257
sS'gl@@'
p426
I437
sS'lef@@'
p427
I825
sS'second'
p428
I538
sS'offic@@'
p429
I546
sS'r'
p430
I211
sS'lin@@'
p431
I345
sS'"c@@'
p432
I974
sS'were'
p433
I315
sS'ber'
p434
I624
sS'ard'
p435
I252
sS'tion'
p436
I580
sS'pos@@'
p437
I347
sS'tri@@'
p438
I516
sS'and'
p439
I26
sS'it@@'
p440
I58
sS'part@@'
p441
I658
sS'clu@@'
p442
I592
sS'ant'
p443
I284
sS'act@@'
p444
I285
sS'produc@@'
p445
I487
sS'have'
p446
I167
sS'ans'
p447
I403
sS'oly@@'
p448
I966
sS'show@@'
p449
I782
sS'u@@'
p450
I42
sS'say@@'
p451
I867
sS'ation'
p452
I127
sS'able'
p453
I453
sS'roup'
p454
I875
sS'ap@@'
p455
I141
sS'ists'
p456
I659
sS'atur@@'
p457
I903
sS'take'
p458
I841
sS'which'
p459
I408
sS'cour@@'
p460
I725
sS'1@@'
p461
I61
sS'ack@@'
p462
I264
sS'of@@'
p463
I570
sS'ell@@'
p464
I352
sS'ist@@'
p465
I160
sS'who'
p466
I310
sS'eg@@'
p467
I236
sS'dea@@'
p468
I475
sS'ser@@'
p469
I238
sS'form@@'
p470
I576
sS'fore'
p471
I952
sS'm@@'
p472
I16
sS'inu@@'
p473
I547
sS'ure'
p474
I508
sS'ke'
p475
I400
sS'seas@@'
p476
I785
sS'm'
p477
I73
sS'ance'
p478
I390
sS'ks'
p479
I172
sS'tu@@'
p480
I616
sS'tal@@'
p481
I497
sS'c@@'
p482
I8
sS'repor@@'
p483
I415
sS'ederal'
p484
I666
sS'ph@@'
p485
I259
sS'microsoft'
p486
I528
sS'9@@'
p487
I374
sS'ac@@'
p488
I125
sS'"s@@'
p489
I975
sS'ul@@'
p490
I107
sS'jap@@'
p491
I610
sS'rel@@'
p492
I388
sS'sev@@'
p493
I574
sS'estin@@'
p494
I793
sS'group'
p495
I767
sS'champ@@'
p496
I801
sS'mark@@'
p497
I645
sS'thre@@'
p498
I526
sS'based'
p499
I830
sS'just'
p500
I702
sS'(reuters@@'
p501
I967
sS'ment'
p502
I316
sS"'@@"
p503
I499
sS'ies'
p504
I192
sS'h@@'
p505
I23
sS'high@@'
p506
I452
sS'66@@'
p507
I880
sS'lat@@'
p508
I653
sS'fi@@'
p509
I468
sS'8'
p510
I582
sS'fir@@'
p511
I425
sS'car@@'
p512
I679
sS'nor@@'
p513
I617
sS'eng@@'
p514
I581
sS'his'
p515
I123
sS'larg@@'
p516
I898
sS'get'
p517
I842
sS'us@@'
p518
I103
sS'de'
p519
I443
sS'<eos>'
p520
I2
sS'ities'
p521
I808
sS'gra@@'
p522
I674
sS'ush'
p523
I660
sS'200@@'
p524
I359
sS'2'
p525
I353
sS',@@'
p526
I483
sS'ds'
p527
I218
sS'busin@@'
p528
I530
sS'laun@@'
p529
I713
sS'ended'
p530
I816
sS'h'
p531
I146
sS'iver@@'
p532
I684
sS'coun@@'
p533
I794
sS'ems'
p534
I777
sS'x'
p535
I206
sS'run@@'
p536
I726
sS'sun@@'
p537
I657
sS'ence'
p538
I384
sS'ition'
p539
I512
sS'set'
p540
I601
sS'wor@@'
p541
I281
sS'national'
p542
I435
sS'all@@'
p543
I196
sS'ade'
p544
I907
sS'sed'
p545
I549
sS'as@@'
p546
I81
sS'are'
p547
I135
sS'hel@@'
p548
I271
sS'vic@@'
p549
I860
sS'ged'
p550
I718
sS'rat@@'
p551
I811
sS'00'
p552
I565
sS'said'
p553
I86
sS'olymp@@'
p554
I728
sS'!@@'
p555
I950
sS'"w@@'
p556
I972
sS'ore@@'
p557
I697
sS'3'
p558
I445
sS'p@@'
p559
I10
sS'ill@@'
p560
I185
sS'peo@@'
p561
I915
sS'ered'
p562
I602
sS'between'
p563
I743
sS'ations'
p564
I303
sS'in@@'
p565
I36
sS'mov@@'
p566
I837
sS'sa@@'
p567
I351
sS'ard@@'
p568
I632
sS'ick@@'
p569
I662
sS'ings'
p570
I430
sS'au@@'
p571
I305
sS'ome'
p572
I858
sS'los@@'
p573
I440
sS'russi@@'
p574
I661
sS'ked'
p575
I587
sS'ld'
p576
I947
sS'rime'
p577
I652
sS'inv@@'
p578
I857
sS'ber@@'
p579
I787
sS'uc@@'
p580
I245
sS'ld@@'
p581
I687
sS'tea@@'
p582
I855
sS'ing,'
p583
I626
sS'ets'
p584
I511
sS'c'
p585
I293
sS'ile'
p586
I290
sS'last'
p587
I307
sS'6@@'
p588
I253
sS'many'
p589
I809
sS'ill'
p590
I494
sS'tt@@'
p591
I929
sS'according'
p592
I763
sS'against'
p593
I294
sS'mer@@'
p594
I643
sS's'
p595
I7
sS'ous@@'
p596
I692
sS'et@@'
p597
I87
sS'ann@@'
p598
I444
sS'ea@@'
p599
I158
sS'ounc@@'
p600
I904
sS'cent@@'
p601
I804
sS'ch'
p602
I205
sS'corp@@'
p603
I881
sS'um@@'
p604
I175
sS'tw@@'
p605
I721
sS'ush@@'
p606
I790
sS'tuesday'
p607
I383
sS'ates'
p608
I362
sS'ce'
p609
I274
sS'ign@@'
p610
I627
sS'softw@@'
p611
I923
sS'cre@@'
p612
I664
sS'"i@@'
p613
I968
sS'tur@@'
p614
I780
sS'maj@@'
p615
I710
sS'ision'
p616
I619
sS'most'
p617
I466
sS'dem@@'
p618
I584
sS'v@@'
p619
I44
sS'ected'
p620
I863
sS'three'
p621
I449
sS'been'
p622
I331
sS'rus@@'
p623
I954
sS'ting'
p624
I270
sS'quar@@'
p625
I958
sS'pal@@'
p626
I670
sS'reuters'
p627
I277
sS'der@@'
p628
I420
sS'hea@@'
p629
I594
sS'expected'
p630
I731
sS'?@@'
p631
I902
sS'pon@@'
p632
I745
sS'killed'
p633
I695
sS'manag@@'
p634
I676
sS'star@@'
p635
I754
sS'grow@@'
p636
I689
sS'gen@@'
p637
I747
sS'quick@@'
p638
I807
sS'ow@@'
p639
I235
sS'sales'
p640
I805
sS'dev@@'
p641
I879
sS'sup@@'
p642
I525
sS'thir@@'
p643
I870
sS'ister'
p644
I905
sS'minister'
p645
I691
sS'prices'
p646
I540
sS'ov@@'
p647
I432
sS'ank'
p648
I709
sS'n@@'
p649
I24
sS'pow@@'
p650
I786
sS'd,'
p651
I831
sS'itt@@'
p652
I795
sS'ent@@'
p653
I110
sS'n'
p654
I62
sS'will'
p655
I130
sS'ound'
p656
I343
sS'ain'
p657
I406
sS'sol@@'
p658
I618
sS'fer@@'
p659
I821
sS'americ@@'
p660
I851
sS'ive'
p661
I188
sS'al@@'
p662
I47
sS've'
p663
I159
sS'ks@@'
p664
I788
sS's@@'
p665
I6
sS'ip'
p666
I897
sS'is'
p667
I65
sS'ir'
p668
I463
sS'it'
p669
I68
sS'elect@@'
p670
I414
sS'exp@@'
p671
I471
sS'id@@'
p672
I104
sS'im'
p673
I454
sS'il'
p674
I288
sS'in'
p675
I19
sS'ia'
p676
I226
sS'sl@@'
p677
I429
sS'ic'
p678
I119
sS'ie'
p679
I703
sS'id'
p680
I249
sS'if'
p681
I798
sS'sof@@'
p682
I938
sS'urity'
p683
I908
sS'enc@@'
p684
I404
sS'"t@@'
p685
I976
sS'ther@@'
p686
I856
sS')'
p687
I168
sS'make'
p688
I834
sS'port'
p689
I783
sS'fin@@'
p690
I204
sS'ept@@'
p691
I762
sS'ince'
p692
I649
sS'largest'
p693
I651
sS'9'
p694
I655
sS'fri@@'
p695
I628
sS'gr@@'
p696
I585
sS'og@@'
p697
I861
sS'european'
p698
I625
sS'k@@'
p699
I39
sS'oil'
p700
I462
sS'http'
p701
I953
sS'ort@@'
p702
I753
sS'""'
p703
I924
sS'href'
p704
I843
sS'yesterday'
p705
I436
sS'ion'
p706
I132
sS'000'
p707
I951
sS'dis@@'
p708
I262
sS'ic@@'
p709
I64
sS'def@@'
p710
I412
sS'off'
p711
I459
sS'riv@@'
p712
I381
sS'ip@@'
p713
I312
sS'i'
p714
I114
sS'a@@'
p715
I12
sS'ious'
p716
I796
sS'our@@'
p717
I269
sS'ff@@'
p718
I519
sS'eb@@'
p719
I360
sS'throu@@'
p720
I752
sS'y'
p721
I35
sS'inc@@'
p722
I850
sS'the'
p723
I4
sS'acc@@'
p724
I409
sS'on@@'
p725
I52
sS'emb@@'
p726
I564
sS'dow@@'
p727
I506
sS'gh@@'
p728
I354
sS'percent'
p729
I521
sS'fe@@'
p730
I596
sS'iz@@'
p731
I407
sS'new@@'
p732
I473
sS'ma@@'
p733
I502
sS'f@@'
p734
I18
sS'con@@'
p735
I95
sS'loo@@'
p736
I480
sS'ash@@'
p737
I410
sS'el@@'
p738
I77
sS'anc@@'
p739
I251
sS'now'
p740
I792
sS'go@@'
p741
I486
sS'ell'
p742
I342
sS'af@@'
p743
I282
sS'reg@@'
p744
I438
sS'had'
p745
I340
sS'ther'
p746
I492
sS'"@@'
p747
I372
sS'ely'
p748
I485
sS'charg@@'
p749
I750
sS'4'
p750
I447
sS'art@@'
p751
I292
sS'has'
p752
I90
sS'ug@@'
p753
I838
sS'19@@'
p754
I797
sS'bec@@'
p755
I476
sS'relea@@'
p756
I556
sS'min@@'
p757
I232
sS'rou@@'
p758
I644
sS'ight'
p759
I230
sS'government'
p760
I472
sS'incre@@'
p761
I772
sS'ame'
p762
I477
sS'sid@@'
p763
I749
sS'game'
p764
I523
sS'ants'
p765
I622
sS'secon@@'
p766
I889
sS'world'
p767
I287
sS'end@@'
p768
I405
sS'gam@@'
p769
I641
sS'olog@@'
p770
I916
sS'be@@'
p771
I268
sS'ast@@'
p772
I386
sS'up@@'
p773
I394
sS'd'
p774
I72
sS'ren@@'
p775
I291
sS'ra@@'
p776
I105
sS'7@@'
p777
I278
sS'resid@@'
p778
I712
sS'maker'
p779
I742
sS't'
p780
I37
sS'night'
p781
I778
sS'full@@'
p782
I822
sS'security'
p783
I642
sS'meric@@'
p784
I941
sS'res@@'
p785
I116
sS'www'
p786
I803
sS'cer@@'
p787
I685
sS'old'
p788
I308
sS'people'
p789
I488
sS'execut@@'
p790
I773
sS'earch'
p791
I558
sS'ie@@'
p792
I765
sS'ric@@'
p793
I330
sS'sion'
p794
I422
sS'back'
p795
I448
sS'brit@@'
p796
I562
sS'ret@@'
p797
I276
sS'ording'
p798
I942
sS'wedn@@'
p799
I631
sS'dat@@'
p800
I853
sS'chin@@'
p801
I533
sS'wi@@'
p802
I882
sS'cor@@'
p803
I906
sS'home'
p804
I827
sS'ear@@'
p805
I177
sS'with@@'
p806
I614
sS'ne@@'
p807
I156
sS'ess'
p808
I209
sS'ight@@'
p809
I393
sS'for'
p810
I50
sS'onom@@'
p811
I944
sS'war@@'
p812
I421
sS'year@@'
p813
I324
sS'ice'
p814
I382
sS'law@@'
p815
I758
sS'da@@'
p816
I220
sS'co@@'
p817
I115
sS'syst@@'
p818
I590
sS'ped'
p819
I427
sS'av@@'
p820
I325
sS'announc@@'
p821
I911
sS'indi@@'
p822
I537
sS'be'
p823
I155
sS'at@@'
p824
I56
sS'sted'
p825
I738
sS'fl@@'
p826
I398
sS'ex@@'
p827
I144
sS'is@@'
p828
I88
sS'pric@@'
p829
I849
sS'ple'
p830
I818
sS'corp'
p831
I500
sS'4@@'
p832
I179
sS'mak@@'
p833
I586
sS'hal@@'
p834
I748
sS'by'
p835
I97
sS'ee@@'
p836
I370
sS'on'
p837
I34
sS'about'
p838
I318
sS'ich'
p839
I928
sS'om@@'
p840
I137
sS'az@@'
p841
I678
sS'ace'
p842
I309
sS'ion@@'
p843
I189
sS'ack'
p844
I535
sS'of'
p845
I17
sS'ach'
p846
I589
sS'o'
p847
I66
sS'bu@@'
p848
I304
sS'ref@@'
p849
I962
sS'act'
p850
I832
sS'ou'
p851
I927
sS'es,'
p852
I272
sS'ause'
p853
I779
sS'or'
p854
I108
sS'software'
p855
I560
sS'por@@'
p856
I559
sS'own'
p857
I693
sS'net@@'
p858
I349
sS'if@@'
p859
I248
sS'into'
p860
I313
sS'?'
p861
I896
sS'des@@'
p862
I442
sS'down'
p863
I529
sS'0@@'
p864
I195
sS'mon@@'
p865
I222
sS'bo@@'
p866
I231
sS'kill@@'
p867
I872
sS't@@'
p868
I11
sS'ira@@'
p869
I973
sS'tr@@'
p870
I203
sS'fil@@'
p871
I515
sS'and@@'
p872
I140
sS'thern'
p873
I817
sS'her'
p874
I826
sS'ett@@'
p875
I835
sS'four@@'
p876
I799
sS'ust'
p877
I784
sS'low'
p878
I699
sS'way'
p879
I496
sS'do@@'
p880
I520
sS'was'
p881
I131
sS'bet@@'
p882
I890
sS'head'
p883
I638
sS'econom@@'
p884
I600
sS'fr@@'
p885
I733
sS'mar@@'
p886
I265
sS'some'
p887
I553
sS'sou@@'
p888
I739
sS'but'
p889
I239
sS'l@@'
p890
I21
sS'rem@@'
p891
I458
sS'cap@@'
p892
I493
sS'austral@@'
p893
I704
sS'e'
p894
I22
sS'line'
p895
I446
sS'ear'
p896
I735
sS'with'
p897
I76
sS'eat'
p898
I776
sS'open@@'
p899
I781
sS'he'
p900
I221
sS'week'
p901
I531
sS'op@@'
p902
I111
sS'made'
p903
I716
sS'quarter@@'
p904
I575
sS'j'
p905
I935
sS'ember'
p906
I681
sS'up'
p907
I182
sS'us'
p908
I169
sS'um'
p909
I654
sS'record'
p910
I751
sS'prov@@'
p911
I419
sS'cu@@'
p912
I465
sS'fu@@'
p913
I518
sS'<unk>'
p914
I1
sS'er@@'
p915
I46
sS'ad'
p916
I623
sS'he@@'
p917
I667
sS'ho@@'
p918
I314
sS'al'
p919
I74
sS'an'
p920
I51
sS'ap'
p921
I247
sS'as'
p922
I67
sS'ar'
p923
I198
sS'at'
p924
I69
sS'our'
p925
I524
sS'ay'
p926
I355
sS'ine'
p927
I467
sS'ship'
p928
I647
sS'ing'
p929
I28
sS'g@@'
p930
I27
sS'inc'
p931
I380
sS'usin@@'
p932
I926
sS'du@@'
p933
I550
sS'no'
p934
I800
sS'cl@@'
p935
I369
sS'when'
p936
I441
sS'uro@@'
p937
I931
sS'ant@@'
p938
I329
sS'devel@@'
p939
I756
sS'arg@@'
p940
I874
sS'other'
p941
I391
sS'5'
p942
I306
sS'?ticker'
p943
I844
sS'ilit@@'
p944
I895
sS'ign'
p945
I539
sS'you'
p946
I819
sS'out'
p947
I223
sS'quot@@'
p948
I341
sS'igh'
p949
I815
sS'fo@@'
p950
I283
sS'ey@@'
p951
I810
sS"'s"
p952
I92
sS'monday'
p953
I363
sS'esday'
p954
I630
sS'la@@'
p955
I228
sS'a,'
p956
I545
sS'ig@@'
p957
I165
sS'est'
p958
I148
sS'ef@@'
p959
I332
sS'ese'
p960
I571
sS'ing@@'
p961
I124
sS'ha@@'
p962
I246
sS'billion'
p963
I671
sS'"the'
p964
I977
sS'ter@@'
p965
I138
sS'lead'
p966
I836
sS'int@@'
p967
I451
sS'port@@'
p968
I744
sS'age'
p969
I299
sS'sen@@'
p970
I605
sS'u'
p971
I194
sS'2004'
p972
I829
sS'time'
p973
I439
sS'tak@@'
p974
I563
sS'q@@'
p975
I591
sS'ris@@'
p976
I474
sS'pre@@'
p977
I680
sS'sh@@'
p978
I112
s.