(dp0
S'inning'
p1
I991
sS'all'
p2
I111
sS'gt'
p3
I48
sS'iraqi'
p4
I263
sS'chinese'
p5
I725
sS'technologies'
p6
I960
sS'global'
p7
I344
sS'dollar'
p8
I337
sS'results'
p9
I540
sS'month'
p10
I151
sS'four'
p11
I131
sS'received'
p12
I992
sS'manager'
p13
I491
sS'coach'
p14
I243
sS'legal'
p15
I833
sS'talks'
p16
I300
sS'shot'
p17
I567
sS'captain'
p18
I995
sS'children'
p19
I851
sS'looking'
p20
I798
sS'baseball'
p21
I630
sS'paris'
p22
I692
sS'thursday'
p23
I59
sS'champions'
p24
I513
sS'to'
p25
I6
sS'must'
p26
I836
sS'program'
p27
I468
sS'spain'
p28
I834
sS'under'
p29
I211
sS'quarterly'
p30
I568
sS'un'
p31
I478
sS'aspx'
p32
I274
sS'worth'
p33
I946
sS'sent'
p34
I905
sS'division'
p35
I679
sS'outside'
p36
I758
sS'far'
p37
I706
sS'rise'
p38
I634
sS'indian'
p39
I828
sS'every'
p40
I888
sS'fall'
p41
I707
sS'sony'
p42
I796
sS'ticker'
p43
I196
sS'championship'
p44
I375
sS'steve'
p45
I1001
sS'school'
p46
I530
sS'nfl'
p47
I892
sS'level'
p48
I854
sS'did'
p49
I469
sS'louis'
p50
I956
sS'rights'
p51
I863
sS'companies'
p52
I209
sS'wednesday'
p53
I53
sS'large'
p54
I818
sS'p'
p55
I287
sS'race'
p56
I539
sS'red'
p57
I264
sS'team'
p58
I121
sS'small'
p59
I629
sS'manchester'
p60
I799
sS'drop'
p61
I903
sS'round'
p62
I312
sS'olympic'
p63
I317
sS'says'
p64
I147
sS'leaders'
p65
I473
sS'phones'
p66
I780
sS'japanese'
p67
I503
sS'elections'
p68
I585
sS'past'
p69
I392
sS'go'
p70
I380
sS'second'
p71
I102
sS'street'
p72
I356
sS'video'
p73
I432
sS'growing'
p74
I680
sS'further'
p75
I845
sS'air'
p76
I363
sS'investment'
p77
I768
sS'even'
p78
I294
sS'will'
p79
I33
sS'what'
p80
I179
sS'power'
p81
I452
sS'rate'
p82
I676
sS'chicago'
p83
I406
sS'giving'
p84
I971
sS'sun'
p85
I575
sS'near'
p86
I386
sS'shares'
p87
I252
sS'18'
p88
I507
sS'access'
p89
I689
sS'version'
p90
I426
sS'above'
p91
I987
sS'capital'
p92
I446
sS'international'
p93
I133
sS'net'
p94
I553
sS'order'
p95
I958
sS'ever'
p96
I625
sS'public'
p97
I349
sS'told'
p98
I512
sS'friday'
p99
I62
sS'led'
p100
I414
sS'exchange'
p101
I621
sS'men'
p102
I437
sS'here'
p103
I417
sS'hundreds'
p104
I912
sS'hours'
p105
I701
sS'reported'
p106
I172
sS'china'
p107
I190
sS'yards'
p108
I730
sS'others'
p109
I791
sS'tv'
p110
I882
sS'november'
p111
I497
sS'strong'
p112
I301
sS'change'
p113
I751
sS'search'
p114
I226
sS'ahead'
p115
I368
sS'canadian'
p116
I537
sS'study'
p117
I723
sS'30'
p118
I419
sS'36'
p119
I420
sS'reports'
p120
I393
sS'fired'
p121
I866
sS'trial'
p122
I675
sS'products'
p123
I450
sS'analysts'
p124
I738
sS'action'
p125
I646
sS'military'
p126
I270
sS'maker'
p127
I199
sS'rebel'
p128
I840
sS'named'
p129
I919
sS'apple'
p130
I410
sS'campaign'
p131
I519
sS'beijing'
p132
I815
sS'win'
p133
I150
sS'africa'
p134
I819
sS'private'
p135
I878
sS'defense'
p136
I561
sS'href'
p137
I223
sS'aimed'
p138
I763
sS'muslim'
p139
I923
sS'touchdown'
p140
I997
sS'crisis'
p141
I1000
sS'market'
p142
I141
sS'cost'
p143
I606
sS'use'
p144
I395
sS'from'
p145
I29
sS'troops'
p146
I401
sS'would'
p147
I90
sS'0'
p148
I193
sS'hospital'
p149
I993
sS'visit'
p150
I896
sS'two'
p151
I38
sS'sports'
p152
I249
sS'equipment'
p153
I955
sS'few'
p154
I600
sS'music'
p155
I251
sS'6'
p156
I130
sS'strike'
p157
I777
sS'australian'
p158
I462
sS'injury'
p159
I957
sS'markets'
p160
I765
sS'until'
p161
I775
sS'today'
p162
I95
sS'more'
p163
I51
sS'``'
p164
I60
sS'kerry'
p165
I620
sS'african'
p166
I772
sS'quickinfo'
p167
I275
sS'share'
p168
I418
sS'company'
p169
I58
sS'local'
p170
I740
sS'israel'
p171
I573
sS'yahoo'
p172
I861
sS'site'
p173
I564
sS'phone'
p174
I314
sS'charged'
p175
I915
sS'known'
p176
I778
sS'hold'
p177
I837
sS'effort'
p178
I835
sS'women'
p179
I577
sS'town'
p180
I961
sS'states'
p181
I148
sS'ibm'
p182
I345
sS'tokyo'
p183
I412
sS'this'
p184
I50
sS'car'
p185
I416
sS'work'
p186
I405
sS'list'
p187
I883
sS'nine'
p188
I644
sS'can'
p189
I138
sS'island'
p190
I968
sS'following'
p191
I396
sS'making'
p192
I470
sS'dollars'
p193
I913
sS'history'
p194
I586
sS'control'
p195
I671
sS'arafat'
p196
I682
sS'violence'
p197
I731
sS'unveiled'
p198
I945
sS'give'
p199
I550
sS'december'
p200
I934
sS'chip'
p201
I638
sS'india'
p202
I282
sS'high'
p203
I135
sS'<pad>'
p204
I0
sS'council'
p205
I802
sS'yankees'
p206
I597
sS'station'
p207
I868
sS'times'
p208
I596
sS'association'
p209
I648
sS'approved'
p210
I932
sS'information'
p211
I563
sS'united'
p212
I91
sS'court'
p213
I201
sS'goal'
p214
I881
sS'quot'
p215
I42
sS'provide'
p216
I891
sS'european'
p217
I162
sS'mike'
p218
I985
sS'1'
p219
I77
sS'how'
p220
I335
sS'sunday'
p221
I88
sS'labor'
p222
I890
sS'earnings'
p223
I331
sS'fourth'
p224
I342
sS'afp'
p225
I176
sS'stock'
p226
I323
sS'profile'
p227
I423
sS'product'
p228
I721
sS'plans'
p229
I191
sS'may'
p230
I137
sS'after'
p231
I34
sS'southern'
p232
I508
sS'france'
p233
I576
sS'islamic'
p234
I947
sS'designed'
p235
I814
sS'coming'
p236
I849
sS'end'
p237
I160
sS'law'
p238
I770
sS'data'
p239
I311
sS'man'
p240
I364
sS'a'
p241
I5
sS'short'
p242
I774
sS'attempt'
p243
I916
sS'third'
p244
I112
sS'amid'
p245
I672
sS'st'
p246
I510
sS'chief'
p247
I207
sS'so'
p248
I260
sS'allow'
p249
I876
sS'media'
p250
I433
sS'executives'
p251
I824
sS'began'
p252
I642
sS'operations'
p253
I839
sS'houston'
p254
I572
sS'six'
p255
I273
sS'help'
p256
I244
sS'office'
p257
I543
sS'september'
p258
I428
sS'2005'
p259
I440
sS'over'
p260
I41
sS'move'
p261
I326
sS'find'
p262
I830
sS'soon'
p263
I729
sS'years'
p264
I97
sS'held'
p265
I315
sS'london'
p266
I210
sS'japan'
p267
I295
sS'still'
p268
I291
sS'its'
p269
I19
sS'before'
p270
I161
sS'24'
p271
I627
sS'25'
p272
I583
sS'27'
p273
I908
sS'group'
p274
I101
sS'21'
p275
I681
sS'22'
p276
I935
sS'23'
p277
I884
sS'personal'
p278
I756
sS'continued'
p279
I779
sS'sale'
p280
I954
sS'28'
p281
I963
sS','
p282
I4
sS'winning'
p283
I538
sS'late'
p284
I429
sS'lt'
p285
I49
sS'reuters'
p286
I30
sS'systems'
p287
I373
sS'policy'
p288
I920
sS'mail'
p289
I636
sS'weeks'
p290
I350
sS'main'
p291
I754
sS'might'
p292
I467
sS'texas'
p293
I651
sS'then'
p294
I790
sS'them'
p295
I212
sS'good'
p296
I536
sS'return'
p297
I592
sS'food'
p298
I695
sS'retailer'
p299
I766
sS'grand'
p300
I623
sS'nation'
p301
I336
sS'they'
p302
I64
sS'half'
p303
I298
sS'not'
p304
I69
sS'nov'
p305
I652
sS'now'
p306
I200
sS'investor'
p307
I232
sS'day'
p308
I116
sS'bank'
p309
I224
sS'toronto'
p310
I643
sS'term'
p311
I696
sS'holiday'
p312
I901
sS'name'
p313
I904
sS'ranked'
p314
I998
sS'warned'
p315
I598
sS'university'
p316
I526
sS'countries'
p317
I703
sS'arrested'
p318
I879
sS'detroit'
p319
I925
sS'victory'
p320
I156
sS'each'
p321
I762
sS'found'
p322
I361
sS'went'
p323
I832
sS'quarter'
p324
I120
sS'side'
p325
I821
sS'injured'
p326
I712
sS'england'
p327
I338
sS'jones'
p328
I771
sS'due'
p329
I525
sS'generation'
p330
I982
sS'series'
p331
I222
sS'energy'
p332
I501
sS'hard'
p333
I737
sS'used'
p334
I389
sS'trading'
p335
I613
sS'year'
p336
I43
sS'eu'
p337
I918
sS'bay'
p338
I804
sS'saturday'
p339
I106
sS'out'
p340
I76
sS'canada'
p341
I691
sS'try'
p342
I970
sS'network'
p343
I197
sS"'"
p344
I297
sS'space'
p345
I240
sS'profit'
p346
I277
sS'since'
p347
I231
sS'research'
p348
I192
sS'increase'
p349
I602
sS're'
p350
I823
sS'investigation'
p351
I902
sS'health'
p352
I590
sS'7'
p353
I186
sS'internet'
p354
I124
sS'got'
p355
I658
sS'electronics'
p356
I822
sS'calif'
p357
I898
sS'announced'
p358
I127
sS'earlier'
p359
I624
sS'ipod'
p360
I926
sS'million'
p361
I84
sS'free'
p362
I371
sS'20'
p363
I352
sS'regulators'
p364
I907
sS'basketball'
p365
I899
sS'california'
p366
I541
sS'york'
p367
I68
sS'members'
p368
I693
sS'put'
p369
I444
sS'yasser'
p370
I787
sS'launch'
p371
I570
sS'could'
p372
I98
sS'computers'
p373
I733
sS'florida'
p374
I502
sS'days'
p375
I281
sS'british'
p376
I216
sS'keep'
p377
I587
sS'american'
p378
I173
sS'place'
p379
I533
sS'including'
p380
I289
sS'w'
p381
I988
sS'ltd'
p382
I645
sS'retail'
p383
I944
sS'star'
p384
I542
sS'south'
p385
I227
sS'first'
p386
I45
sS'major'
p387
I195
sS'already'
p388
I685
sS'revenue'
p389
I709
sS'meet'
p390
I825
sS'powerful'
p391
I848
sS'number'
p392
I384
sS'one'
p393
I55
sS'production'
p394
I719
sS'americans'
p395
I811
sS'another'
p396
I225
sS'president'
p397
I79
sS'vote'
p398
I784
sS'force'
p399
I626
sS'open'
p400
I163
sS'george'
p401
I734
sS'size'
p402
I773
sS'city'
p403
I154
sS'little'
p404
I515
sS'management'
p405
I516
sS'service'
p406
I169
sS'los'
p407
I505
sS'leading'
p408
I388
sS'top'
p409
I145
sS'system'
p410
I267
sS'least'
p411
I203
sS'their'
p412
I37
sS'attack'
p413
I408
sS'2'
p414
I81
sS'rates'
p415
I715
sS'too'
p416
I684
sS'white'
p417
I705
sS'john'
p418
I242
sS'final'
p419
I221
sS'store'
p420
I717
sS'selling'
p421
I809
sS'that'
p422
I14
sS'season'
p423
I113
sS'moscow'
p424
I838
sS'park'
p425
I937
sS'took'
p426
I374
sS'released'
p427
I321
sS'part'
p428
I327
sS'western'
p429
I716
sS'sign'
p430
I962
sS'than'
p431
I63
sS'11'
p432
I341
sS'10'
p433
I155
sS'13'
p434
I549
sS'12'
p435
I397
sS'15'
p436
I448
sS'target'
p437
I198
sS'17'
p438
I489
sS'16'
p439
I562
sS'19'
p440
I649
sS'rival'
p441
I438
sS'likely'
p442
I650
sS'nations'
p443
I357
sS'charges'
p444
I578
sS'computer'
p445
I174
sS'williams'
p446
I718
sS'were'
p447
I74
sS'toward'
p448
I865
sS'russia'
p449
I459
sS'and'
p450
I9
sS'san'
p451
I214
sS'investors'
p452
I339
sS'boston'
p453
I328
sS'winter'
p454
I967
sS'turned'
p455
I952
sS'survey'
p456
I910
sS'say'
p457
I261
sS'buy'
p458
I402
sS'current'
p459
I914
sS'have'
p460
I35
sS'need'
p461
I864
sS'seen'
p462
I953
sS'any'
p463
I387
sS'sell'
p464
I674
sS'agency'
p465
I403
sS'also'
p466
I382
sS'costs'
p467
I569
sS'take'
p468
I234
sS'which'
p469
I92
sS'online'
p470
I204
sS'performance'
p471
I698
sS'quarterback'
p472
I761
sS'club'
p473
I584
sS'blue'
p474
I880
sS'play'
p475
I348
sS'added'
p476
I999
sS'afghanistan'
p477
I699
sS'quote'
p478
I404
sS'price'
p479
I439
sS'who'
p480
I72
sS'reach'
p481
I810
sS'most'
p482
I140
sS'eight'
p483
I495
sS'plan'
p484
I308
sS'services'
p485
I257
sS'america'
p486
I400
sS'medal'
p487
I694
sS'such'
p488
I461
sS'rivals'
p489
I939
sS'democratic'
p490
I895
sS'consumers'
p491
I829
sS'mobile'
p492
I272
sS'average'
p493
I989
sS'later'
p494
I966
sS'm'
p495
I677
sS'drive'
p496
I906
sS'face'
p497
I351
sS'points'
p498
I322
sS'tech'
p499
I789
sS'senior'
p500
I608
sS'left'
p501
I250
sS'consumer'
p502
I490
sS'microsoft'
p503
I119
sS'came'
p504
I653
sS'reserve'
p505
I639
sS'saying'
p506
I499
sS'bomb'
p507
I565
sS'rebels'
p508
I887
sS'gold'
p509
I372
sS'show'
p510
I607
sS'german'
p511
I732
sS'agreed'
p512
I259
sS'hopes'
p513
I700
sS'nasdaq'
p514
I931
sS'radio'
p515
I742
sS'asia'
p516
I1002
sS'battle'
p517
I667
sS'soldiers'
p518
I739
sS'font'
p519
I635
sS'networks'
p520
I713
sS'fifth'
p521
I984
sS'staff'
p522
I975
sS'cell'
p523
I820
sS'giant'
p524
I236
sS'finally'
p525
I844
sS'based'
p526
I229
sS'northern'
p527
I500
sS'title'
p528
I479
sS'('
p529
I15
sS'less'
p530
I641
sS'state'
p531
I129
sS'should'
p532
I381
sS'failed'
p533
I781
sS'bush'
p534
I188
sS'going'
p535
I647
sS'money'
p536
I617
sS'fuel'
p537
I842
sS'8'
p538
I319
sS'b'
p539
I488
sS'thousands'
p540
I654
sS'oct'
p541
I589
sS'giants'
p542
I750
sS'do'
p543
I325
sS'his'
p544
I31
sS'hit'
p545
I266
sS'gains'
p546
I940
sS'get'
p547
I285
sS'beat'
p548
I431
sS'scientists'
p549
I474
sS'stop'
p550
I808
sS'television'
p551
I610
sS'<eos>'
p552
I2
sS'coast'
p553
I831
sS'baghdad'
p554
I268
sS'october'
p555
I422
sS'nearly'
p556
I355
sS'new'
p557
I27
sS'report'
p558
I230
sS'during'
p559
I202
sS'trade'
p560
I307
sS'him'
p561
I256
sS'14'
p562
I511
sS'prime'
p563
I185
sS'iran'
p564
I582
sS'showed'
p565
I591
sS'ended'
p566
I657
sS'boost'
p567
I909
sS'morning'
p568
I556
sS'euro'
p569
I859
sS'she'
p570
I482
sS'though'
p571
I981
sS'forces'
p572
I391
sS'release'
p573
I413
sS'through'
p574
I248
sS'where'
p575
I340
sS'secretary'
p576
I557
sS'available'
p577
I911
sS'set'
p578
I217
sS'national'
p579
I183
sS'see'
p580
I727
sS'officials'
p581
I144
sS'college'
p582
I894
sS'are'
p583
I39
sS'close'
p584
I457
sS'best'
p585
I442
sS'israeli'
p586
I353
sS'said'
p587
I22
sS'federal'
p588
I180
sS'nuclear'
p589
I329
sS'away'
p590
I529
sS'increased'
p591
I969
sS'forecast'
p592
I871
sS'weapons'
p593
I801
sS'3'
p594
I126
sS'won'
p595
I237
sS'olympics'
p596
I826
sS'between'
p597
I205
sS'crude'
p598
I480
sS'across'
p599
I544
sS'europe'
p600
I441
sS'we'
p601
I509
sS'korea'
p602
I615
sS'jobs'
p603
I487
sS'august'
p604
I678
sS'opening'
p605
I663
sS'sold'
p606
I933
sS'killing'
p607
I434
sS'job'
p608
I611
sS'death'
p609
I605
sS'windows'
p610
I362
sS'key'
p611
I407
sS'police'
p612
I235
sS'come'
p613
I628
sS'david'
p614
I631
sS'league'
p615
I167
sS'last'
p616
I66
sS'signed'
p617
I604
sS'career'
p618
I710
sS'many'
p619
I290
sS'region'
p620
I443
sS'annual'
p621
I869
sS'according'
p622
I184
sS'against'
p623
I70
sS'foreign'
p624
I378
sS'players'
p625
I302
sS's'
p626
I13
sS'takeover'
p627
I749
sS'games'
p628
I241
sS'planned'
p629
I897
sS'operating'
p630
I588
sS'heart'
p631
I886
sS'com'
p632
I104
sS'asked'
p633
I928
sS'businesses'
p634
I873
sS'insurance'
p635
I807
sS'pakistan'
p636
I518
sS'co'
p637
I168
sS'opposition'
p638
I747
sS'point'
p639
I686
sS'wall'
p640
I451
sS'tuesday'
p641
I54
sS'expectations'
p642
I922
sS'anti'
p643
I662
sS'army'
p644
I546
sS'news'
p645
I142
sS'tony'
p646
I846
sS'desktop'
p647
I816
sS'100'
p648
I668
sS'conference'
p649
I466
sS'better'
p650
I593
sS'iraq'
p651
I103
sS'arsenal'
p652
I948
sS'union'
p653
I283
sS'west'
p654
I334
sS'sox'
p655
I398
sS'three'
p656
I78
sS'been'
p657
I80
sS'mark'
p658
I612
sS'commission'
p659
I415
sS'much'
p660
I318
sS'interest'
p661
I547
sS'gaza'
p662
I425
sS'expected'
p663
I187
sS'meeting'
p664
I521
sS'board'
p665
I548
sS'firm'
p666
I369
sS'life'
p667
I498
sS'flight'
p668
I943
sS'champion'
p669
I484
sS'both'
p670
I421
sS'fire'
p671
I769
sS'gas'
p672
I788
sS'39'
p673
I12
sS'darfur'
p674
I687
sS'sales'
p675
I175
sS'fund'
p676
I760
sS'minister'
p677
I125
sS'demand'
p678
I472
sS'prices'
p679
I115
sS'suspected'
p680
I927
sS'despite'
p681
I367
sS'an'
p682
I28
sS'former'
p683
I143
sS'those'
p684
I619
sS'case'
p685
I581
sS'east'
p686
I632
sS'look'
p687
I736
sS'cbs'
p688
I889
sS'straight'
p689
I554
sS'bill'
p690
I614
sS'britain'
p691
I551
sS'n'
p692
I107
sS"n't"
p693
I304
sS'while'
p694
I194
sS'country'
p695
I158
sS'aid'
p696
I938
sS'gave'
p697
I722
sS'atlanta'
p698
I862
sS'taking'
p699
I532
sS'launched'
p700
I531
sS'seven'
p701
I358
sS'employees'
p702
I930
sS'almost'
p703
I622
sS'is'
p704
I21
sS'it'
p705
I23
sS'helped'
p706
I659
sS'player'
p707
I435
sS'drug'
p708
I409
sS'in'
p709
I8
sS'claimed'
p710
I959
sS'seattle'
p711
I805
sS'technology'
p712
I164
sS'if'
p713
I152
sS'confirmed'
p714
I949
sS')'
p715
I16
sS'pay'
p716
I411
sS'make'
p717
I228
sS'administration'
p718
I664
sS'tour'
p719
I783
sS'same'
p720
I595
sS'ceo'
p721
I936
sS'economy'
p722
I399
sS'largest'
p723
I165
sS'9'
p724
I394
sS'party'
p725
I477
sS'terrorism'
p726
I972
sS'several'
p727
I445
sS'higher'
p728
I316
sS'week'
p729
I83
sS'oil'
p730
I86
sS'http'
p731
I208
sS'again'
p732
I449
sS'yesterday'
p733
I67
sS'running'
p734
I506
sS'never'
p735
I877
sS'recent'
p736
I463
sS'lower'
p737
I492
sS'off'
p738
I122
sS'center'
p739
I496
sS'i'
p740
I247
sS'well'
p741
I447
sS'fighting'
p742
I847
sS'double'
p743
I996
sS'without'
p744
I520
sS'claims'
p745
I867
sS'the'
p746
I3
sS'corporate'
p747
I735
sS'researchers'
p748
I850
sS'latest'
p749
I313
sS'stake'
p750
I977
sS'stores'
p751
I618
sS'just'
p752
I170
sS'among'
p753
I599
sS'being'
p754
I246
sS'when'
p755
I87
sS'executive'
p756
I296
sS'judge'
p757
I670
sS'human'
p758
I744
sS'amp'
p759
I376
sS'paul'
p760
I753
sS'speed'
p761
I743
sS'yet'
p762
I690
sS'taken'
p763
I792
sS'begin'
p764
I793
sS'web'
p765
I254
sS'cut'
p766
I370
sS'family'
p767
I855
sS'cup'
p768
I219
sS'rose'
p769
I286
sS'workers'
p770
I453
sS'supply'
p771
I942
sS'had'
p772
I82
sS'killed'
p773
I182
sS'source'
p774
I454
sS'concerns'
p775
I776
sS'4'
p776
I153
sS'cash'
p777
I683
sS'tax'
p778
I697
sS'has'
p779
I26
sS'match'
p780
I566
sS'chairman'
p781
I559
sS'real'
p782
I655
sS'customers'
p783
I471
sS'australia'
p784
I332
sS'around'
p785
I377
sS'decided'
p786
I941
sS'government'
p787
I94
sS'big'
p788
I299
sS'bid'
p789
I310
sS'possible'
p790
I669
sS'early'
p791
I269
sS'department'
p792
I486
sS'game'
p793
I93
sS'five'
p794
I181
sS'press'
p795
I427
sS'world'
p796
I56
sS'color'
p797
I973
sS'intel'
p798
I535
sS'loss'
p799
I385
sS'like'
p800
I278
sS'lost'
p801
I574
sS'miami'
p802
I803
sS'future'
p803
I558
sS'50'
p804
I603
sS'server'
p805
I748
sS'french'
p806
I464
sS'michael'
p807
I493
sS'continue'
p808
I874
sS't'
p809
I171
sS'night'
p810
I109
sS'popular'
p811
I755
sS'become'
p812
I552
sS'security'
p813
I117
sS'italian'
p814
I900
sS'bowl'
p815
I885
sS'www'
p816
I215
sS'because'
p817
I265
sS'old'
p818
I238
sS'deal'
p819
I220
sS'people'
p820
I96
sS'madrid'
p821
I860
sS'linux'
p822
I580
sS'some'
p823
I128
sS'back'
p824
I132
sS'competition'
p825
I757
sS'growth'
p826
I324
sS'election'
p827
I253
sS'home'
p828
I177
sS'securities'
p829
I875
sS'cp'
p830
I843
sS'for'
p831
I11
sS'communications'
p832
I579
sS'sudan'
p833
I741
sS'decision'
p834
I528
sS'spokesman'
p835
I976
sS'hurricane'
p836
I527
sS'per'
p837
I424
sS'does'
p838
I767
sS'unit'
p839
I812
sS'leader'
p840
I245
sS'?'
p841
I100
sS'officer'
p842
I917
sS'be'
p843
I36
sS'run'
p844
I255
sS'business'
p845
I146
sS'problems'
p846
I924
sS'agreement'
p847
I460
sS'pressure'
p848
I893
sS'step'
p849
I746
sS'corp'
p850
I85
sS'hostage'
p851
I745
sS'post'
p852
I660
sS'by'
p853
I24
sS'on'
p854
I10
sS'about'
p855
I71
sS'central'
p856
I534
sS'working'
p857
I853
sS'getting'
p858
I872
sS'attacks'
p859
I483
sS'of'
p860
I7
sS'industry'
p861
I239
sS'months'
p862
I276
sS'chance'
p863
I994
sS'o'
p864
I271
sS'angeles'
p865
I524
sS'airline'
p866
I786
sS'germany'
p867
I688
sS'efforts'
p868
I724
sS'sept'
p869
I708
sS'or'
p870
I114
sS'software'
p871
I108
sS'raised'
p872
I817
sS'own'
p873
I594
sS'enough'
p874
I785
sS'political'
p875
I517
sS'into'
p876
I75
sS'within'
p877
I726
sS'washington'
p878
I134
sS'athens'
p879
I330
sS'down'
p880
I178
sS'guard'
p881
I978
sS'google'
p882
I309
sS'rising'
p883
I921
sS'cent'
p884
I986
sS'strip'
p885
I951
sS'financial'
p886
I365
sS'next'
p887
I110
sS'your'
p888
I436
sS'bankruptcy'
p889
I702
sS'behind'
p890
I656
sS'accused'
p891
I640
sS'devices'
p892
I782
sS'her'
p893
I233
sS'pc'
p894
I609
sS'spending'
p895
I856
sS'weekend'
p896
I555
sS'support'
p897
I465
sS'there'
p898
I206
sS'philadelphia'
p899
I929
sS'long'
p900
I213
sS'fight'
p901
I806
sS'posted'
p902
I601
sS'start'
p903
I320
sS'threat'
p904
I990
sS'development'
p905
I794
sS'low'
p906
I514
sS'way'
p907
I258
sS'house'
p908
I494
sS'biggest'
p909
I292
sS'call'
p910
I858
sS'was'
p911
I32
sS'war'
p912
I288
sS'billion'
p913
I139
sS'head'
p914
I346
sS'only'
p915
I262
sS'north'
p916
I280
sS'stadium'
p917
I633
sS'offering'
p918
I665
sS'offer'
p919
I456
sS'great'
p920
I827
sS'but'
p921
I47
sS'fullquote'
p922
I118
sS'wireless'
p923
I306
sS'contract'
p924
I455
sS'dead'
p925
I797
sS'filed'
p926
I800
sS'russian'
p927
I383
sS'line'
p928
I504
sS'trying'
p929
I714
sS'with'
p930
I17
sS'he'
p931
I44
sS'made'
p932
I189
sS'full'
p933
I666
sS'whether'
p934
I476
sS'official'
p935
I303
sS'up'
p936
I57
sS'us'
p937
I40
sS'record'
p938
I159
sS'economic'
p939
I360
sS'ruling'
p940
I964
sS'uk'
p941
I430
sS'called'
p942
I343
sS'<unk>'
p943
I1
sS'151'
p944
I711
sS'engine'
p945
I759
sS'fans'
p946
I637
sS'tournament'
p947
I950
sS'moved'
p948
I974
sS'al'
p949
I284
sS'general'
p950
I279
sS"''"
p951
I73
sS'ap'
p952
I46
sS'as'
p953
I18
sS'right'
p954
I390
sS'at'
p955
I20
sS'file'
p956
I857
sS'rally'
p957
I870
sS'inc'
p958
I61
sS'palestinian'
p959
I305
sS'want'
p960
I979
sS'no'
p961
I99
sS'peace'
p962
I522
sS'percent'
p963
I105
sS'green'
p964
I841
sS'peoplesoft'
p965
I560
sS'field'
p966
I523
sS'other'
p967
I149
sS'5'
p968
I166
sS'airlines'
p969
I720
sS'holding'
p970
I965
sS'digital'
p971
I481
sS'test'
p972
I333
sS'you'
p973
I157
sS'scored'
p974
I485
sS'area'
p975
I852
sS'francisco'
p976
I366
sS"'s"
p977
I25
sS'users'
p978
I347
sS'monday'
p979
I52
sS'football'
p980
I359
sS'reached'
p981
I764
sS'militants'
p982
I616
sS'fell'
p983
I379
sS'authorities'
p984
I728
sS'stocks'
p985
I123
sS'presidential'
p986
I354
sS'barrel'
p987
I661
sS'died'
p988
I673
sS'opened'
p989
I983
sS'ago'
p990
I293
sS'e'
p991
I458
sS'lead'
p992
I218
sS'using'
p993
I545
sS'teams'
p994
I813
sS'nasa'
p995
I571
sS'u'
p996
I65
sS'2004'
p997
I136
sS'time'
p998
I89
sS'oracle'
p999
I475
sS'fresh'
p1000
I980
sS'starting'
p1001
I752
sS'profits'
p1002
I795
sS'once'
p1003
I704
s.